GAS LISTING /tmp/ccV3jiQe.s 			page 1


   1              		.file	"ConsoleBuffer.cpp"
   2              		.option pic
   3              		.option norelax
   4              		.text
   5              	.Ltext0:
   6              		.align	2
   7              		.globl	_ZN13ConsoleBufferC2Ei
   9              	_ZN13ConsoleBufferC2Ei:
  10              	.LFB46:
  11              		.file 1 "src/ConsoleBuffer.cpp"
   1:src/ConsoleBuffer.cpp **** //
   2:src/ConsoleBuffer.cpp **** // Created by os on 6/28/23.
   3:src/ConsoleBuffer.cpp **** //
   4:src/ConsoleBuffer.cpp **** 
   5:src/ConsoleBuffer.cpp **** #include "../h/ConsoleBuffer.hpp"
   6:src/ConsoleBuffer.cpp **** 
   7:src/ConsoleBuffer.cpp **** ConsoleBuffer::ConsoleBuffer(int _cap): cap(_cap + 1), head(0), tail(0) {
  12              		.loc 1 7 1
  13              		.cfi_startproc
  14              	.LVL0:
  15 0000 130101FD 		addi	sp,sp,-48
  16              		.cfi_def_cfa_offset 48
  17 0004 23341102 		sd	ra,40(sp)
  18 0008 23308102 		sd	s0,32(sp)
  19 000c 233C9100 		sd	s1,24(sp)
  20 0010 23382101 		sd	s2,16(sp)
  21 0014 23343101 		sd	s3,8(sp)
  22              		.cfi_offset 1, -8
  23              		.cfi_offset 8, -16
  24              		.cfi_offset 9, -24
  25              		.cfi_offset 18, -32
  26              		.cfi_offset 19, -40
  27 0018 13040103 		addi	s0,sp,48
  28              		.cfi_def_cfa 8, 0
  29 001c 93890500 		mv	s3,a1
  30              	.LBB31:
  31              		.loc 1 7 50 is_stmt 0
  32 0020 9B871500 		addiw	a5,a1,1
  33              		.loc 1 7 71
  34 0024 2320F500 		sw	a5,0(a0)
  35 0028 B7140000 		li	s1,4096
  36 002c B3049500 		add	s1,a0,s1
  37 0030 23A20400 		sw	zero,4(s1)
  38 0034 23A40400 		sw	zero,8(s1)
   8:src/ConsoleBuffer.cpp ****     //buffer = (char*)mem_alloc(sizeof(int) * cap);
   9:src/ConsoleBuffer.cpp ****     itemAvailable = new KernelSemaphore(0);
  39              		.loc 1 9 5 is_stmt 1
  40              		.loc 1 9 42 is_stmt 0
  41 0038 13050002 		li	a0,32
  42              	.LVL1:
  43 003c 97000000 		call	_ZN15KernelSemaphorenwEm@plt
  43      E7800000 
  44              	.LVL2:
  45              	.LBB32:
  46              	.LBB33:
  47              		.file 2 "src/../h/../h/KernelSemaphore.hpp"
   1:src/../h/../h/KernelSemaphore.hpp **** //
GAS LISTING /tmp/ccV3jiQe.s 			page 2


   2:src/../h/../h/KernelSemaphore.hpp **** // Created by os on 5/17/23.
   3:src/../h/../h/KernelSemaphore.hpp **** //
   4:src/../h/../h/KernelSemaphore.hpp **** 
   5:src/../h/../h/KernelSemaphore.hpp **** #ifndef PROJECT_BASE_V1_1_KERNELSEMAPHORE_HPP
   6:src/../h/../h/KernelSemaphore.hpp **** #define PROJECT_BASE_V1_1_KERNELSEMAPHORE_HPP
   7:src/../h/../h/KernelSemaphore.hpp **** 
   8:src/../h/../h/KernelSemaphore.hpp **** #include "../lib/hw.h"
   9:src/../h/../h/KernelSemaphore.hpp **** #include "../h/PCB.hpp"
  10:src/../h/../h/KernelSemaphore.hpp **** #include "../h/Queue.hpp"
  11:src/../h/../h/KernelSemaphore.hpp **** #include "../h/Riscv.hpp"
  12:src/../h/../h/KernelSemaphore.hpp **** 
  13:src/../h/../h/KernelSemaphore.hpp **** class KernelSemaphore {
  14:src/../h/../h/KernelSemaphore.hpp **** public:
  15:src/../h/../h/KernelSemaphore.hpp ****     explicit KernelSemaphore(int init=1) : val(init) {};
  48              		.loc 2 15 52
  49 0044 17090000 		la	s2,_ZTV15KernelSemaphore
  49      03390900 
  50 004c 13090901 		addi	s2,s2,16
  51 0050 23302501 		sd	s2,0(a0)
  52 0054 23240500 		sw	zero,8(a0)
  53              	.LVL3:
  54              	.LBB34:
  55              	.LBB35:
  56              		.file 3 "src/../h/../h/../h/Queue.hpp"
   1:src/../h/../h/../h/Queue.hpp **** //
   2:src/../h/../h/../h/Queue.hpp **** // Created by os on 5/16/23.
   3:src/../h/../h/../h/Queue.hpp **** //
   4:src/../h/../h/../h/Queue.hpp **** 
   5:src/../h/../h/../h/Queue.hpp **** #ifndef PROJECT_BASE_V1_1_QUEUE_HPP
   6:src/../h/../h/../h/Queue.hpp **** #define PROJECT_BASE_V1_1_QUEUE_HPP
   7:src/../h/../h/../h/Queue.hpp **** 
   8:src/../h/../h/../h/Queue.hpp **** #include "../h/MemoryAllocator.hpp"
   9:src/../h/../h/../h/Queue.hpp **** template<typename T>
  10:src/../h/../h/../h/Queue.hpp **** class Queue{
  11:src/../h/../h/../h/Queue.hpp **** private:
  12:src/../h/../h/../h/Queue.hpp ****     struct Elem{
  13:src/../h/../h/../h/Queue.hpp ****         T* data;
  14:src/../h/../h/../h/Queue.hpp ****         Elem* next;
  15:src/../h/../h/../h/Queue.hpp **** 
  16:src/../h/../h/../h/Queue.hpp ****         Elem(T* data, Elem* next): data(data), next(next){}
  17:src/../h/../h/../h/Queue.hpp ****         void * operator new(size_t);
  18:src/../h/../h/../h/Queue.hpp ****         void operator delete(void *);
  19:src/../h/../h/../h/Queue.hpp ****     };
  20:src/../h/../h/../h/Queue.hpp **** 
  21:src/../h/../h/../h/Queue.hpp ****     Elem* head, *tail;
  22:src/../h/../h/../h/Queue.hpp ****     void * operator new(size_t);
  23:src/../h/../h/../h/Queue.hpp ****     void operator delete(void *);
  24:src/../h/../h/../h/Queue.hpp **** public:
  25:src/../h/../h/../h/Queue.hpp ****     Queue(): head(nullptr), tail(nullptr){}
  57              		.loc 3 25 41
  58 0058 23380500 		sd	zero,16(a0)
  59 005c 233C0500 		sd	zero,24(a0)
  60              	.LVL4:
  61              	.LBE35:
  62              	.LBE34:
  63              	.LBE33:
  64              	.LBE32:
GAS LISTING /tmp/ccV3jiQe.s 			page 3


  65              		.loc 1 9 19
  66 0060 23BCA400 		sd	a0,24(s1)
  10:src/ConsoleBuffer.cpp ****     spaceAvailable = new KernelSemaphore(_cap);
  67              		.loc 1 10 5 is_stmt 1
  68              		.loc 1 10 46 is_stmt 0
  69 0064 13050002 		li	a0,32
  70 0068 97000000 		call	_ZN15KernelSemaphorenwEm@plt
  70      E7800000 
  71              	.LVL5:
  72              	.LBB36:
  73              	.LBB37:
  74              		.loc 2 15 52
  75 0070 23302501 		sd	s2,0(a0)
  76 0074 23243501 		sw	s3,8(a0)
  77              	.LVL6:
  78              	.LBB38:
  79              	.LBB39:
  80              		.loc 3 25 41
  81 0078 23380500 		sd	zero,16(a0)
  82 007c 233C0500 		sd	zero,24(a0)
  83              	.LVL7:
  84              	.LBE39:
  85              	.LBE38:
  86              	.LBE37:
  87              	.LBE36:
  88              		.loc 1 10 20
  89 0080 23B8A400 		sd	a0,16(s1)
  11:src/ConsoleBuffer.cpp ****     mutexHead = new KernelSemaphore(1);
  90              		.loc 1 11 5 is_stmt 1
  91              		.loc 1 11 38 is_stmt 0
  92 0084 13050002 		li	a0,32
  93 0088 97000000 		call	_ZN15KernelSemaphorenwEm@plt
  93      E7800000 
  94              	.LVL8:
  95              	.LBB40:
  96              	.LBB41:
  97              		.loc 2 15 52
  98 0090 23302501 		sd	s2,0(a0)
  99 0094 93091000 		li	s3,1
 100 0098 23243501 		sw	s3,8(a0)
 101              	.LVL9:
 102              	.LBB42:
 103              	.LBB43:
 104              		.loc 3 25 41
 105 009c 23380500 		sd	zero,16(a0)
 106 00a0 233C0500 		sd	zero,24(a0)
 107              	.LVL10:
 108              	.LBE43:
 109              	.LBE42:
 110              	.LBE41:
 111              	.LBE40:
 112              		.loc 1 11 15
 113 00a4 23B0A402 		sd	a0,32(s1)
  12:src/ConsoleBuffer.cpp ****     mutexTail = new KernelSemaphore(1);
 114              		.loc 1 12 5 is_stmt 1
 115              		.loc 1 12 38 is_stmt 0
 116 00a8 13050002 		li	a0,32
GAS LISTING /tmp/ccV3jiQe.s 			page 4


 117 00ac 97000000 		call	_ZN15KernelSemaphorenwEm@plt
 117      E7800000 
 118              	.LVL11:
 119              	.LBB44:
 120              	.LBB45:
 121              		.loc 2 15 52
 122 00b4 23302501 		sd	s2,0(a0)
 123 00b8 23243501 		sw	s3,8(a0)
 124              	.LVL12:
 125              	.LBB46:
 126              	.LBB47:
 127              		.loc 3 25 41
 128 00bc 23380500 		sd	zero,16(a0)
 129 00c0 233C0500 		sd	zero,24(a0)
 130              	.LVL13:
 131              	.LBE47:
 132              	.LBE46:
 133              	.LBE45:
 134              	.LBE44:
 135              		.loc 1 12 15
 136 00c4 23B4A402 		sd	a0,40(s1)
 137              	.LBE31:
  13:src/ConsoleBuffer.cpp **** }
 138              		.loc 1 13 1
 139 00c8 83308102 		ld	ra,40(sp)
 140              		.cfi_restore 1
 141 00cc 03340102 		ld	s0,32(sp)
 142              		.cfi_restore 8
 143              		.cfi_def_cfa 2, 48
 144 00d0 83348101 		ld	s1,24(sp)
 145              		.cfi_restore 9
 146              	.LVL14:
 147 00d4 03390101 		ld	s2,16(sp)
 148              		.cfi_restore 18
 149 00d8 83398100 		ld	s3,8(sp)
 150              		.cfi_restore 19
 151 00dc 13010103 		addi	sp,sp,48
 152              		.cfi_def_cfa_offset 0
 153 00e0 67800000 		jr	ra
 154              		.cfi_endproc
 155              	.LFE46:
 157              		.globl	_ZN13ConsoleBufferC1Ei
 158              		.set	_ZN13ConsoleBufferC1Ei,_ZN13ConsoleBufferC2Ei
 159              		.align	2
 160              		.globl	_ZN13ConsoleBufferD2Ev
 162              	_ZN13ConsoleBufferD2Ev:
 163              	.LFB49:
  14:src/ConsoleBuffer.cpp **** 
  15:src/ConsoleBuffer.cpp **** ConsoleBuffer::~ConsoleBuffer() {
 164              		.loc 1 15 1 is_stmt 1
 165              		.cfi_startproc
 166              		.cfi_personality 0x9b,DW.ref.__gxx_personality_v0
 167              		.cfi_lsda 0x1b,.LLSDA49
 168              	.LVL15:
 169 00e4 130101FF 		addi	sp,sp,-16
 170              		.cfi_def_cfa_offset 16
 171 00e8 23341100 		sd	ra,8(sp)
GAS LISTING /tmp/ccV3jiQe.s 			page 5


 172 00ec 23308100 		sd	s0,0(sp)
 173              		.cfi_offset 1, -8
 174              		.cfi_offset 8, -16
 175 00f0 13040101 		addi	s0,sp,16
 176              		.cfi_def_cfa 8, 0
 177              	.LBB48:
  16:src/ConsoleBuffer.cpp ****     /*putc('\n');
  17:src/ConsoleBuffer.cpp ****     printString("Buffer deleted!\n");
  18:src/ConsoleBuffer.cpp ****     while (getCnt() > 0) {
  19:src/ConsoleBuffer.cpp ****         char ch = buffer[head];
  20:src/ConsoleBuffer.cpp ****         putc(ch);
  21:src/ConsoleBuffer.cpp ****         head = (head + 1) % cap;
  22:src/ConsoleBuffer.cpp ****     }
  23:src/ConsoleBuffer.cpp ****     putc('!');
  24:src/ConsoleBuffer.cpp ****     putc('\n');*/
  25:src/ConsoleBuffer.cpp **** 
  26:src/ConsoleBuffer.cpp ****     MemoryAllocator::kfree(buffer);
 178              		.loc 1 26 5
 179              		.loc 1 26 27 is_stmt 0
 180 00f4 13054500 		addi	a0,a0,4
 181              	.LVL16:
 182 00f8 97000000 		call	_ZN15MemoryAllocator5kfreeEPv@plt
 182      E7800000 
 183              	.LVL17:
 184              	.LBE48:
  27:src/ConsoleBuffer.cpp ****     /*sem_close(itemAvailable);
  28:src/ConsoleBuffer.cpp ****     sem_close(spaceAvailable);
  29:src/ConsoleBuffer.cpp ****     sem_close(mutexTail);
  30:src/ConsoleBuffer.cpp ****     sem_close(mutexHead);*/
  31:src/ConsoleBuffer.cpp **** }
 185              		.loc 1 31 1
 186 0100 83308100 		ld	ra,8(sp)
 187              		.cfi_restore 1
 188 0104 03340100 		ld	s0,0(sp)
 189              		.cfi_restore 8
 190              		.cfi_def_cfa 2, 16
 191 0108 13010101 		addi	sp,sp,16
 192              		.cfi_def_cfa_offset 0
 193 010c 67800000 		jr	ra
 194              		.cfi_endproc
 195              	.LFE49:
 196              		.globl	__gxx_personality_v0
 197              		.section	.gcc_except_table,"a",@progbits
 198              	.LLSDA49:
 199 0000 FF       		.byte	0xff
 200 0001 FF       		.byte	0xff
 201 0002 03       		.byte	0x3
 202 0003 00       		.byte	0
 203              		.text
 205              		.globl	_ZN13ConsoleBufferD1Ev
 206              		.set	_ZN13ConsoleBufferD1Ev,_ZN13ConsoleBufferD2Ev
 207              		.align	2
 208              		.globl	_ZN13ConsoleBuffer3putEc
 210              	_ZN13ConsoleBuffer3putEc:
 211              	.LFB51:
  32:src/ConsoleBuffer.cpp **** 
  33:src/ConsoleBuffer.cpp **** void ConsoleBuffer::put(char val) {
GAS LISTING /tmp/ccV3jiQe.s 			page 6


 212              		.loc 1 33 35 is_stmt 1
 213              		.cfi_startproc
 214              	.LVL18:
 215 0110 130101FD 		addi	sp,sp,-48
 216              		.cfi_def_cfa_offset 48
 217 0114 23341102 		sd	ra,40(sp)
 218 0118 23308102 		sd	s0,32(sp)
 219 011c 233C9100 		sd	s1,24(sp)
 220 0120 23382101 		sd	s2,16(sp)
 221 0124 23343101 		sd	s3,8(sp)
 222              		.cfi_offset 1, -8
 223              		.cfi_offset 8, -16
 224              		.cfi_offset 9, -24
 225              		.cfi_offset 18, -32
 226              		.cfi_offset 19, -40
 227 0128 13040103 		addi	s0,sp,48
 228              		.cfi_def_cfa 8, 0
 229 012c 13090500 		mv	s2,a0
 230 0130 93890500 		mv	s3,a1
  34:src/ConsoleBuffer.cpp ****     spaceAvailable->wait();
 231              		.loc 1 34 5
 232 0134 B7140000 		li	s1,4096
 233 0138 B3049500 		add	s1,a0,s1
 234              		.loc 1 34 25 is_stmt 0
 235 013c 03B50401 		ld	a0,16(s1)
 236              	.LVL19:
 237 0140 97000000 		call	_ZN15KernelSemaphore4waitEv@plt
 237      E7800000 
 238              	.LVL20:
  35:src/ConsoleBuffer.cpp ****     mutexTail->wait();
 239              		.loc 1 35 5 is_stmt 1
 240              		.loc 1 35 20 is_stmt 0
 241 0148 03B58402 		ld	a0,40(s1)
 242 014c 97000000 		call	_ZN15KernelSemaphore4waitEv@plt
 242      E7800000 
 243              	.LVL21:
  36:src/ConsoleBuffer.cpp **** 
  37:src/ConsoleBuffer.cpp ****     buffer[tail] = val;
 244              		.loc 1 37 5 is_stmt 1
 245              		.loc 1 37 12 is_stmt 0
 246 0154 83A78400 		lw	a5,8(s1)
 247              		.loc 1 37 18
 248 0158 3307F900 		add	a4,s2,a5
 249 015c 23023701 		sb	s3,4(a4)
  38:src/ConsoleBuffer.cpp ****     tail = (tail + 1) % cap;
 250              		.loc 1 38 5 is_stmt 1
 251              		.loc 1 38 18 is_stmt 0
 252 0160 9B871700 		addiw	a5,a5,1
 253              		.loc 1 38 25
 254 0164 03270900 		lw	a4,0(s2)
 255              		.loc 1 38 23
 256 0168 BBE7E702 		remw	a5,a5,a4
 257              		.loc 1 38 10
 258 016c 23A4F400 		sw	a5,8(s1)
  39:src/ConsoleBuffer.cpp **** 
  40:src/ConsoleBuffer.cpp ****     mutexTail->signal();
 259              		.loc 1 40 5 is_stmt 1
GAS LISTING /tmp/ccV3jiQe.s 			page 7


 260              		.loc 1 40 22 is_stmt 0
 261 0170 03B58402 		ld	a0,40(s1)
 262 0174 97000000 		call	_ZN15KernelSemaphore6signalEv@plt
 262      E7800000 
 263              	.LVL22:
  41:src/ConsoleBuffer.cpp ****     itemAvailable->signal();
 264              		.loc 1 41 5 is_stmt 1
 265              		.loc 1 41 26 is_stmt 0
 266 017c 03B58401 		ld	a0,24(s1)
 267 0180 97000000 		call	_ZN15KernelSemaphore6signalEv@plt
 267      E7800000 
 268              	.LVL23:
  42:src/ConsoleBuffer.cpp **** 
  43:src/ConsoleBuffer.cpp **** }
 269              		.loc 1 43 1
 270 0188 83308102 		ld	ra,40(sp)
 271              		.cfi_restore 1
 272 018c 03340102 		ld	s0,32(sp)
 273              		.cfi_restore 8
 274              		.cfi_def_cfa 2, 48
 275 0190 83348101 		ld	s1,24(sp)
 276              		.cfi_restore 9
 277 0194 03390101 		ld	s2,16(sp)
 278              		.cfi_restore 18
 279              	.LVL24:
 280 0198 83398100 		ld	s3,8(sp)
 281              		.cfi_restore 19
 282 019c 13010103 		addi	sp,sp,48
 283              		.cfi_def_cfa_offset 0
 284 01a0 67800000 		jr	ra
 285              		.cfi_endproc
 286              	.LFE51:
 288              		.align	2
 289              		.globl	_ZN13ConsoleBuffer3getEv
 291              	_ZN13ConsoleBuffer3getEv:
 292              	.LFB52:
  44:src/ConsoleBuffer.cpp **** 
  45:src/ConsoleBuffer.cpp **** char ConsoleBuffer::get() {
 293              		.loc 1 45 27 is_stmt 1
 294              		.cfi_startproc
 295              	.LVL25:
 296 01a4 130101FD 		addi	sp,sp,-48
 297              		.cfi_def_cfa_offset 48
 298 01a8 23341102 		sd	ra,40(sp)
 299 01ac 23308102 		sd	s0,32(sp)
 300 01b0 233C9100 		sd	s1,24(sp)
 301 01b4 23382101 		sd	s2,16(sp)
 302 01b8 23343101 		sd	s3,8(sp)
 303              		.cfi_offset 1, -8
 304              		.cfi_offset 8, -16
 305              		.cfi_offset 9, -24
 306              		.cfi_offset 18, -32
 307              		.cfi_offset 19, -40
 308 01bc 13040103 		addi	s0,sp,48
 309              		.cfi_def_cfa 8, 0
 310 01c0 13090500 		mv	s2,a0
  46:src/ConsoleBuffer.cpp ****     itemAvailable->wait();
GAS LISTING /tmp/ccV3jiQe.s 			page 8


 311              		.loc 1 46 5
 312 01c4 B7140000 		li	s1,4096
 313 01c8 B3049500 		add	s1,a0,s1
 314              		.loc 1 46 24 is_stmt 0
 315 01cc 03B58401 		ld	a0,24(s1)
 316              	.LVL26:
 317 01d0 97000000 		call	_ZN15KernelSemaphore4waitEv@plt
 317      E7800000 
 318              	.LVL27:
  47:src/ConsoleBuffer.cpp ****     mutexHead->wait();
 319              		.loc 1 47 5 is_stmt 1
 320              		.loc 1 47 20 is_stmt 0
 321 01d8 03B50402 		ld	a0,32(s1)
 322 01dc 97000000 		call	_ZN15KernelSemaphore4waitEv@plt
 322      E7800000 
 323              	.LVL28:
  48:src/ConsoleBuffer.cpp **** 
  49:src/ConsoleBuffer.cpp ****     char ret = buffer[head];
 324              		.loc 1 49 5 is_stmt 1
 325              		.loc 1 49 23 is_stmt 0
 326 01e4 83A74400 		lw	a5,4(s1)
 327              		.loc 1 49 10
 328 01e8 3307F900 		add	a4,s2,a5
 329 01ec 83494700 		lbu	s3,4(a4)
 330              	.LVL29:
  50:src/ConsoleBuffer.cpp ****     head = (head + 1) % cap;
 331              		.loc 1 50 5 is_stmt 1
 332              		.loc 1 50 18 is_stmt 0
 333 01f0 9B871700 		addiw	a5,a5,1
 334              		.loc 1 50 25
 335 01f4 03270900 		lw	a4,0(s2)
 336              		.loc 1 50 23
 337 01f8 BBE7E702 		remw	a5,a5,a4
 338              		.loc 1 50 10
 339 01fc 23A2F400 		sw	a5,4(s1)
  51:src/ConsoleBuffer.cpp **** 
  52:src/ConsoleBuffer.cpp ****     mutexHead->signal();
 340              		.loc 1 52 5 is_stmt 1
 341              		.loc 1 52 22 is_stmt 0
 342 0200 03B50402 		ld	a0,32(s1)
 343 0204 97000000 		call	_ZN15KernelSemaphore6signalEv@plt
 343      E7800000 
 344              	.LVL30:
  53:src/ConsoleBuffer.cpp ****     spaceAvailable->signal();
 345              		.loc 1 53 5 is_stmt 1
 346              		.loc 1 53 27 is_stmt 0
 347 020c 03B50401 		ld	a0,16(s1)
 348 0210 97000000 		call	_ZN15KernelSemaphore6signalEv@plt
 348      E7800000 
 349              	.LVL31:
  54:src/ConsoleBuffer.cpp **** 
  55:src/ConsoleBuffer.cpp ****     return ret;
 350              		.loc 1 55 5 is_stmt 1
  56:src/ConsoleBuffer.cpp **** }
 351              		.loc 1 56 1 is_stmt 0
 352 0218 13850900 		mv	a0,s3
 353 021c 83308102 		ld	ra,40(sp)
GAS LISTING /tmp/ccV3jiQe.s 			page 9


 354              		.cfi_restore 1
 355 0220 03340102 		ld	s0,32(sp)
 356              		.cfi_restore 8
 357              		.cfi_def_cfa 2, 48
 358 0224 83348101 		ld	s1,24(sp)
 359              		.cfi_restore 9
 360 0228 03390101 		ld	s2,16(sp)
 361              		.cfi_restore 18
 362              	.LVL32:
 363 022c 83398100 		ld	s3,8(sp)
 364              		.cfi_restore 19
 365              	.LVL33:
 366 0230 13010103 		addi	sp,sp,48
 367              		.cfi_def_cfa_offset 0
 368 0234 67800000 		jr	ra
 369              		.cfi_endproc
 370              	.LFE52:
 372              		.align	2
 373              		.globl	_ZN13ConsoleBuffer6getCntEv
 375              	_ZN13ConsoleBuffer6getCntEv:
 376              	.LFB53:
  57:src/ConsoleBuffer.cpp **** 
  58:src/ConsoleBuffer.cpp **** int ConsoleBuffer::getCnt() {
 377              		.loc 1 58 29 is_stmt 1
 378              		.cfi_startproc
 379              	.LVL34:
 380 0238 130101FE 		addi	sp,sp,-32
 381              		.cfi_def_cfa_offset 32
 382 023c 233C1100 		sd	ra,24(sp)
 383 0240 23388100 		sd	s0,16(sp)
 384 0244 23349100 		sd	s1,8(sp)
 385 0248 23302101 		sd	s2,0(sp)
 386              		.cfi_offset 1, -8
 387              		.cfi_offset 8, -16
 388              		.cfi_offset 9, -24
 389              		.cfi_offset 18, -32
 390 024c 13040102 		addi	s0,sp,32
 391              		.cfi_def_cfa 8, 0
 392 0250 93040500 		mv	s1,a0
  59:src/ConsoleBuffer.cpp ****     int ret;
 393              		.loc 1 59 5
  60:src/ConsoleBuffer.cpp **** 
  61:src/ConsoleBuffer.cpp ****     mutexHead->wait();
 394              		.loc 1 61 5
 395 0254 37190000 		li	s2,4096
 396 0258 33092501 		add	s2,a0,s2
 397              		.loc 1 61 20 is_stmt 0
 398 025c 03350902 		ld	a0,32(s2)
 399              	.LVL35:
 400 0260 97000000 		call	_ZN15KernelSemaphore4waitEv@plt
 400      E7800000 
 401              	.LVL36:
  62:src/ConsoleBuffer.cpp ****     mutexTail->wait();
 402              		.loc 1 62 5 is_stmt 1
 403              		.loc 1 62 20 is_stmt 0
 404 0268 03358902 		ld	a0,40(s2)
 405 026c 97000000 		call	_ZN15KernelSemaphore4waitEv@plt
GAS LISTING /tmp/ccV3jiQe.s 			page 10


 405      E7800000 
 406              	.LVL37:
  63:src/ConsoleBuffer.cpp ****     //sem_wait(mutexHead);
  64:src/ConsoleBuffer.cpp ****     //sem_wait(mutexTail);
  65:src/ConsoleBuffer.cpp **** 
  66:src/ConsoleBuffer.cpp ****     if (tail >= head) {
 407              		.loc 1 66 5 is_stmt 1
 408              		.loc 1 66 9 is_stmt 0
 409 0274 83278900 		lw	a5,8(s2)
 410              		.loc 1 66 17
 411 0278 03294900 		lw	s2,4(s2)
 412              		.loc 1 66 5
 413 027c 63C22705 		blt	a5,s2,.L10
  67:src/ConsoleBuffer.cpp ****         ret = tail - head;
 414              		.loc 1 67 9 is_stmt 1
 415              		.loc 1 67 13 is_stmt 0
 416 0280 3B892741 		subw	s2,a5,s2
 417              	.LVL38:
 418              	.L11:
  68:src/ConsoleBuffer.cpp ****     } else {
  69:src/ConsoleBuffer.cpp ****         ret = cap - head + tail;
  70:src/ConsoleBuffer.cpp ****     }
  71:src/ConsoleBuffer.cpp **** 
  72:src/ConsoleBuffer.cpp ****     mutexTail->signal();
 419              		.loc 1 72 5 is_stmt 1
 420 0284 37150000 		li	a0,4096
 421 0288 B384A400 		add	s1,s1,a0
 422              	.LVL39:
 423              		.loc 1 72 22 is_stmt 0
 424 028c 03B58402 		ld	a0,40(s1)
 425 0290 97000000 		call	_ZN15KernelSemaphore6signalEv@plt
 425      E7800000 
 426              	.LVL40:
  73:src/ConsoleBuffer.cpp ****     mutexHead->signal();
 427              		.loc 1 73 5 is_stmt 1
 428              		.loc 1 73 22 is_stmt 0
 429 0298 03B50402 		ld	a0,32(s1)
 430 029c 97000000 		call	_ZN15KernelSemaphore6signalEv@plt
 430      E7800000 
 431              	.LVL41:
  74:src/ConsoleBuffer.cpp ****     //sem_signal(mutexTail);
  75:src/ConsoleBuffer.cpp ****     //sem_signal(mutexHead);
  76:src/ConsoleBuffer.cpp **** 
  77:src/ConsoleBuffer.cpp ****     return ret;
 432              		.loc 1 77 5 is_stmt 1
  78:src/ConsoleBuffer.cpp **** }...
 433              		.loc 1 78 1 is_stmt 0
 434 02a4 13050900 		mv	a0,s2
 435 02a8 83308101 		ld	ra,24(sp)
 436              		.cfi_remember_state
 437              		.cfi_restore 1
 438 02ac 03340101 		ld	s0,16(sp)
 439              		.cfi_restore 8
 440              		.cfi_def_cfa 2, 32
 441 02b0 83348100 		ld	s1,8(sp)
 442              		.cfi_restore 9
 443              	.LVL42:
GAS LISTING /tmp/ccV3jiQe.s 			page 11


 444 02b4 03390100 		ld	s2,0(sp)
 445              		.cfi_restore 18
 446              	.LVL43:
 447 02b8 13010102 		addi	sp,sp,32
 448              		.cfi_def_cfa_offset 0
 449 02bc 67800000 		jr	ra
 450              	.LVL44:
 451              	.L10:
 452              		.cfi_restore_state
  69:src/ConsoleBuffer.cpp ****         ret = cap - head + tail;
 453              		.loc 1 69 9 is_stmt 1
  69:src/ConsoleBuffer.cpp ****         ret = cap - head + tail;
 454              		.loc 1 69 15 is_stmt 0
 455 02c0 03A70400 		lw	a4,0(s1)
  69:src/ConsoleBuffer.cpp ****         ret = cap - head + tail;
 456              		.loc 1 69 19
 457 02c4 3B092741 		subw	s2,a4,s2
  69:src/ConsoleBuffer.cpp ****         ret = cap - head + tail;
 458              		.loc 1 69 13
 459 02c8 3B09F900 		addw	s2,s2,a5
 460 02cc 6FF09FFB 		j	.L11
 461              		.cfi_endproc
 462              	.LFE53:
 464              	.Letext0:
 465              		.file 4 "src/../h/../h/../lib/hw.h"
 466              		.file 5 "src/../h/../h/../h/../h/MemoryAllocator.hpp"
 467              		.file 6 "src/../h/../h/../h/PCB.hpp"
 468              		.file 7 "src/../h/ConsoleBuffer.hpp"
 469              		.file 8 "src/../h/../h/syscall_c.hpp"
 3733              		.align	3
 3736              	DW.ref.__gxx_personality_v0:
 3737 0000 00000000 		.dword	__gxx_personality_v0
 3737      00000000 
 3738              		.ident	"GCC: (Ubuntu 9.4.0-1ubuntu1~20.04) 9.4.0"
 3739              		.section	.note.GNU-stack,"",@progbits
GAS LISTING /tmp/ccV3jiQe.s 			page 12


DEFINED SYMBOLS
                            *ABS*:0000000000000000 ConsoleBuffer.cpp
     /tmp/ccV3jiQe.s:9      .text:0000000000000000 _ZN13ConsoleBufferC2Ei
     /tmp/ccV3jiQe.s:13     .text:0000000000000000 .L0 
     /tmp/ccV3jiQe.s:15     .text:0000000000000000 .L0 
     /tmp/ccV3jiQe.s:16     .text:0000000000000004 .L0 
     /tmp/ccV3jiQe.s:22     .text:0000000000000018 .L0 
     /tmp/ccV3jiQe.s:23     .text:0000000000000018 .L0 
     /tmp/ccV3jiQe.s:24     .text:0000000000000018 .L0 
     /tmp/ccV3jiQe.s:25     .text:0000000000000018 .L0 
     /tmp/ccV3jiQe.s:26     .text:0000000000000018 .L0 
     /tmp/ccV3jiQe.s:28     .text:000000000000001c .L0 
     /tmp/ccV3jiQe.s:32     .text:0000000000000020 .L0 
     /tmp/ccV3jiQe.s:34     .text:0000000000000024 .L0 
     /tmp/ccV3jiQe.s:40     .text:0000000000000038 .L0 
     /tmp/ccV3jiQe.s:41     .text:0000000000000038 .L0 
     /tmp/ccV3jiQe.s:49     .text:0000000000000044 .L0 
     /tmp/ccV3jiQe.s:58     .text:0000000000000058 .L0 
     /tmp/ccV3jiQe.s:66     .text:0000000000000060 .L0 
     /tmp/ccV3jiQe.s:68     .text:0000000000000064 .L0 
     /tmp/ccV3jiQe.s:69     .text:0000000000000064 .L0 
     /tmp/ccV3jiQe.s:75     .text:0000000000000070 .L0 
     /tmp/ccV3jiQe.s:81     .text:0000000000000078 .L0 
     /tmp/ccV3jiQe.s:89     .text:0000000000000080 .L0 
     /tmp/ccV3jiQe.s:91     .text:0000000000000084 .L0 
     /tmp/ccV3jiQe.s:92     .text:0000000000000084 .L0 
     /tmp/ccV3jiQe.s:98     .text:0000000000000090 .L0 
     /tmp/ccV3jiQe.s:105    .text:000000000000009c .L0 
     /tmp/ccV3jiQe.s:113    .text:00000000000000a4 .L0 
     /tmp/ccV3jiQe.s:115    .text:00000000000000a8 .L0 
     /tmp/ccV3jiQe.s:116    .text:00000000000000a8 .L0 
     /tmp/ccV3jiQe.s:122    .text:00000000000000b4 .L0 
     /tmp/ccV3jiQe.s:128    .text:00000000000000bc .L0 
     /tmp/ccV3jiQe.s:136    .text:00000000000000c4 .L0 
     /tmp/ccV3jiQe.s:139    .text:00000000000000c8 .L0 
     /tmp/ccV3jiQe.s:140    .text:00000000000000cc .L0 
     /tmp/ccV3jiQe.s:142    .text:00000000000000d0 .L0 
     /tmp/ccV3jiQe.s:143    .text:00000000000000d0 .L0 
     /tmp/ccV3jiQe.s:145    .text:00000000000000d4 .L0 
     /tmp/ccV3jiQe.s:148    .text:00000000000000d8 .L0 
     /tmp/ccV3jiQe.s:150    .text:00000000000000dc .L0 
     /tmp/ccV3jiQe.s:152    .text:00000000000000e0 .L0 
     /tmp/ccV3jiQe.s:154    .text:00000000000000e4 .L0 
     /tmp/ccV3jiQe.s:9      .text:0000000000000000 _ZN13ConsoleBufferC1Ei
     /tmp/ccV3jiQe.s:162    .text:00000000000000e4 _ZN13ConsoleBufferD2Ev
     /tmp/ccV3jiQe.s:165    .text:00000000000000e4 .L0 
     /tmp/ccV3jiQe.s:3736   .data.rel.local.DW.ref.__gxx_personality_v0:0000000000000000 DW.ref.__gxx_personality_v0
     /tmp/ccV3jiQe.s:169    .text:00000000000000e4 .L0 
     /tmp/ccV3jiQe.s:170    .text:00000000000000e8 .L0 
     /tmp/ccV3jiQe.s:173    .text:00000000000000f0 .L0 
     /tmp/ccV3jiQe.s:174    .text:00000000000000f0 .L0 
     /tmp/ccV3jiQe.s:176    .text:00000000000000f4 .L0 
     /tmp/ccV3jiQe.s:179    .text:00000000000000f4 .L0 
     /tmp/ccV3jiQe.s:180    .text:00000000000000f4 .L0 
     /tmp/ccV3jiQe.s:186    .text:0000000000000100 .L0 
     /tmp/ccV3jiQe.s:187    .text:0000000000000104 .L0 
     /tmp/ccV3jiQe.s:189    .text:0000000000000108 .L0 
GAS LISTING /tmp/ccV3jiQe.s 			page 13


     /tmp/ccV3jiQe.s:190    .text:0000000000000108 .L0 
     /tmp/ccV3jiQe.s:192    .text:000000000000010c .L0 
     /tmp/ccV3jiQe.s:194    .text:0000000000000110 .L0 
     /tmp/ccV3jiQe.s:162    .text:00000000000000e4 _ZN13ConsoleBufferD1Ev
     /tmp/ccV3jiQe.s:210    .text:0000000000000110 _ZN13ConsoleBuffer3putEc
     /tmp/ccV3jiQe.s:213    .text:0000000000000110 .L0 
     /tmp/ccV3jiQe.s:215    .text:0000000000000110 .L0 
     /tmp/ccV3jiQe.s:216    .text:0000000000000114 .L0 
     /tmp/ccV3jiQe.s:222    .text:0000000000000128 .L0 
     /tmp/ccV3jiQe.s:223    .text:0000000000000128 .L0 
     /tmp/ccV3jiQe.s:224    .text:0000000000000128 .L0 
     /tmp/ccV3jiQe.s:225    .text:0000000000000128 .L0 
     /tmp/ccV3jiQe.s:226    .text:0000000000000128 .L0 
     /tmp/ccV3jiQe.s:228    .text:000000000000012c .L0 
     /tmp/ccV3jiQe.s:232    .text:0000000000000134 .L0 
     /tmp/ccV3jiQe.s:235    .text:000000000000013c .L0 
     /tmp/ccV3jiQe.s:240    .text:0000000000000148 .L0 
     /tmp/ccV3jiQe.s:241    .text:0000000000000148 .L0 
     /tmp/ccV3jiQe.s:245    .text:0000000000000154 .L0 
     /tmp/ccV3jiQe.s:246    .text:0000000000000154 .L0 
     /tmp/ccV3jiQe.s:248    .text:0000000000000158 .L0 
     /tmp/ccV3jiQe.s:251    .text:0000000000000160 .L0 
     /tmp/ccV3jiQe.s:252    .text:0000000000000160 .L0 
     /tmp/ccV3jiQe.s:254    .text:0000000000000164 .L0 
     /tmp/ccV3jiQe.s:256    .text:0000000000000168 .L0 
     /tmp/ccV3jiQe.s:258    .text:000000000000016c .L0 
     /tmp/ccV3jiQe.s:260    .text:0000000000000170 .L0 
     /tmp/ccV3jiQe.s:261    .text:0000000000000170 .L0 
     /tmp/ccV3jiQe.s:265    .text:000000000000017c .L0 
     /tmp/ccV3jiQe.s:266    .text:000000000000017c .L0 
     /tmp/ccV3jiQe.s:270    .text:0000000000000188 .L0 
     /tmp/ccV3jiQe.s:271    .text:000000000000018c .L0 
     /tmp/ccV3jiQe.s:273    .text:0000000000000190 .L0 
     /tmp/ccV3jiQe.s:274    .text:0000000000000190 .L0 
     /tmp/ccV3jiQe.s:276    .text:0000000000000194 .L0 
     /tmp/ccV3jiQe.s:278    .text:0000000000000198 .L0 
     /tmp/ccV3jiQe.s:281    .text:000000000000019c .L0 
     /tmp/ccV3jiQe.s:283    .text:00000000000001a0 .L0 
     /tmp/ccV3jiQe.s:285    .text:00000000000001a4 .L0 
     /tmp/ccV3jiQe.s:291    .text:00000000000001a4 _ZN13ConsoleBuffer3getEv
     /tmp/ccV3jiQe.s:294    .text:00000000000001a4 .L0 
     /tmp/ccV3jiQe.s:296    .text:00000000000001a4 .L0 
     /tmp/ccV3jiQe.s:297    .text:00000000000001a8 .L0 
     /tmp/ccV3jiQe.s:303    .text:00000000000001bc .L0 
     /tmp/ccV3jiQe.s:304    .text:00000000000001bc .L0 
     /tmp/ccV3jiQe.s:305    .text:00000000000001bc .L0 
     /tmp/ccV3jiQe.s:306    .text:00000000000001bc .L0 
     /tmp/ccV3jiQe.s:307    .text:00000000000001bc .L0 
     /tmp/ccV3jiQe.s:309    .text:00000000000001c0 .L0 
     /tmp/ccV3jiQe.s:312    .text:00000000000001c4 .L0 
     /tmp/ccV3jiQe.s:315    .text:00000000000001cc .L0 
     /tmp/ccV3jiQe.s:320    .text:00000000000001d8 .L0 
     /tmp/ccV3jiQe.s:321    .text:00000000000001d8 .L0 
     /tmp/ccV3jiQe.s:325    .text:00000000000001e4 .L0 
     /tmp/ccV3jiQe.s:326    .text:00000000000001e4 .L0 
     /tmp/ccV3jiQe.s:328    .text:00000000000001e8 .L0 
     /tmp/ccV3jiQe.s:332    .text:00000000000001f0 .L0 
GAS LISTING /tmp/ccV3jiQe.s 			page 14


     /tmp/ccV3jiQe.s:333    .text:00000000000001f0 .L0 
     /tmp/ccV3jiQe.s:335    .text:00000000000001f4 .L0 
     /tmp/ccV3jiQe.s:337    .text:00000000000001f8 .L0 
     /tmp/ccV3jiQe.s:339    .text:00000000000001fc .L0 
     /tmp/ccV3jiQe.s:341    .text:0000000000000200 .L0 
     /tmp/ccV3jiQe.s:342    .text:0000000000000200 .L0 
     /tmp/ccV3jiQe.s:346    .text:000000000000020c .L0 
     /tmp/ccV3jiQe.s:347    .text:000000000000020c .L0 
     /tmp/ccV3jiQe.s:351    .text:0000000000000218 .L0 
     /tmp/ccV3jiQe.s:352    .text:0000000000000218 .L0 
     /tmp/ccV3jiQe.s:354    .text:0000000000000220 .L0 
     /tmp/ccV3jiQe.s:356    .text:0000000000000224 .L0 
     /tmp/ccV3jiQe.s:357    .text:0000000000000224 .L0 
     /tmp/ccV3jiQe.s:359    .text:0000000000000228 .L0 
     /tmp/ccV3jiQe.s:361    .text:000000000000022c .L0 
     /tmp/ccV3jiQe.s:364    .text:0000000000000230 .L0 
     /tmp/ccV3jiQe.s:367    .text:0000000000000234 .L0 
     /tmp/ccV3jiQe.s:369    .text:0000000000000238 .L0 
     /tmp/ccV3jiQe.s:375    .text:0000000000000238 _ZN13ConsoleBuffer6getCntEv
     /tmp/ccV3jiQe.s:378    .text:0000000000000238 .L0 
     /tmp/ccV3jiQe.s:380    .text:0000000000000238 .L0 
     /tmp/ccV3jiQe.s:381    .text:000000000000023c .L0 
     /tmp/ccV3jiQe.s:386    .text:000000000000024c .L0 
     /tmp/ccV3jiQe.s:387    .text:000000000000024c .L0 
     /tmp/ccV3jiQe.s:388    .text:000000000000024c .L0 
     /tmp/ccV3jiQe.s:389    .text:000000000000024c .L0 
     /tmp/ccV3jiQe.s:391    .text:0000000000000250 .L0 
     /tmp/ccV3jiQe.s:394    .text:0000000000000254 .L0 
     /tmp/ccV3jiQe.s:395    .text:0000000000000254 .L0 
     /tmp/ccV3jiQe.s:398    .text:000000000000025c .L0 
     /tmp/ccV3jiQe.s:403    .text:0000000000000268 .L0 
     /tmp/ccV3jiQe.s:404    .text:0000000000000268 .L0 
     /tmp/ccV3jiQe.s:408    .text:0000000000000274 .L0 
     /tmp/ccV3jiQe.s:409    .text:0000000000000274 .L0 
     /tmp/ccV3jiQe.s:411    .text:0000000000000278 .L0 
     /tmp/ccV3jiQe.s:413    .text:000000000000027c .L0 
     /tmp/ccV3jiQe.s:415    .text:0000000000000280 .L0 
     /tmp/ccV3jiQe.s:416    .text:0000000000000280 .L0 
     /tmp/ccV3jiQe.s:420    .text:0000000000000284 .L0 
     /tmp/ccV3jiQe.s:424    .text:000000000000028c .L0 
     /tmp/ccV3jiQe.s:428    .text:0000000000000298 .L0 
     /tmp/ccV3jiQe.s:429    .text:0000000000000298 .L0 
     /tmp/ccV3jiQe.s:433    .text:00000000000002a4 .L0 
     /tmp/ccV3jiQe.s:434    .text:00000000000002a4 .L0 
     /tmp/ccV3jiQe.s:436    .text:00000000000002ac .L0 
     /tmp/ccV3jiQe.s:437    .text:00000000000002ac .L0 
     /tmp/ccV3jiQe.s:439    .text:00000000000002b0 .L0 
     /tmp/ccV3jiQe.s:440    .text:00000000000002b0 .L0 
     /tmp/ccV3jiQe.s:442    .text:00000000000002b4 .L0 
     /tmp/ccV3jiQe.s:445    .text:00000000000002b8 .L0 
     /tmp/ccV3jiQe.s:448    .text:00000000000002bc .L0 
     /tmp/ccV3jiQe.s:452    .text:00000000000002c0 .L0 
     /tmp/ccV3jiQe.s:454    .text:00000000000002c0 .L0 
     /tmp/ccV3jiQe.s:455    .text:00000000000002c0 .L0 
     /tmp/ccV3jiQe.s:457    .text:00000000000002c4 .L0 
     /tmp/ccV3jiQe.s:459    .text:00000000000002c8 .L0 
     /tmp/ccV3jiQe.s:461    .text:00000000000002d0 .L0 
GAS LISTING /tmp/ccV3jiQe.s 			page 15


     /tmp/ccV3jiQe.s:470    .text:00000000000002d0 .L0 
     /tmp/ccV3jiQe.s:49     .text:0000000000000044 .L0 
     /tmp/ccV3jiQe.s:451    .text:00000000000002c0 .L10
     /tmp/ccV3jiQe.s:418    .text:0000000000000284 .L11
     /tmp/ccV3jiQe.s:1961   .debug_abbrev:0000000000000000 .Ldebug_abbrev0
     /tmp/ccV3jiQe.s:3648   .debug_str:00000000000007f0 .LASF159
     /tmp/ccV3jiQe.s:3662   .debug_str:0000000000000908 .LASF160
     /tmp/ccV3jiQe.s:3658   .debug_str:00000000000008df .LASF161
     /tmp/ccV3jiQe.s:5      .text:0000000000000000 .Ltext0
     /tmp/ccV3jiQe.s:464    .text:00000000000002d0 .Letext0
     /tmp/ccV3jiQe.s:3388   .debug_line:0000000000000000 .Ldebug_line0
     /tmp/ccV3jiQe.s:3496   .debug_str:0000000000000332 .LASF0
     /tmp/ccV3jiQe.s:3520   .debug_str:0000000000000408 .LASF1
     /tmp/ccV3jiQe.s:3598   .debug_str:000000000000067d .LASF2
     /tmp/ccV3jiQe.s:3604   .debug_str:00000000000006a0 .LASF4
     /tmp/ccV3jiQe.s:3506   .debug_str:0000000000000393 .LASF3
     /tmp/ccV3jiQe.s:3402   .debug_str:0000000000000043 .LASF5
     /tmp/ccV3jiQe.s:3576   .debug_str:00000000000005d8 .LASF6
     /tmp/ccV3jiQe.s:3512   .debug_str:00000000000003c6 .LASF7
     /tmp/ccV3jiQe.s:3482   .debug_str:00000000000002c9 .LASF8
     /tmp/ccV3jiQe.s:3488   .debug_str:00000000000002f0 .LASF9
     /tmp/ccV3jiQe.s:3432   .debug_str:0000000000000161 .LASF10
     /tmp/ccV3jiQe.s:3474   .debug_str:00000000000002a3 .LASF11
     /tmp/ccV3jiQe.s:3444   .debug_str:00000000000001b8 .LASF12
     /tmp/ccV3jiQe.s:3430   .debug_str:0000000000000151 .LASF13
     /tmp/ccV3jiQe.s:3630   .debug_str:000000000000078e .LASF14
     /tmp/ccV3jiQe.s:3466   .debug_str:0000000000000257 .LASF15
     /tmp/ccV3jiQe.s:3620   .debug_str:000000000000071e .LASF16
     /tmp/ccV3jiQe.s:3572   .debug_str:00000000000005bc .LASF39
     /tmp/ccV3jiQe.s:3592   .debug_str:000000000000065f .LASF64
     /tmp/ccV3jiQe.s:3518   .debug_str:0000000000000403 .LASF17
     /tmp/ccV3jiQe.s:3434   .debug_str:0000000000000170 .LASF18
     /tmp/ccV3jiQe.s:3580   .debug_str:00000000000005f3 .LASF19
     /tmp/ccV3jiQe.s:3562   .debug_str:0000000000000572 .LASF20
     /tmp/ccV3jiQe.s:3494   .debug_str:0000000000000326 .LASF21
     /tmp/ccV3jiQe.s:3416   .debug_str:00000000000000ec .LASF26
     /tmp/ccV3jiQe.s:3716   .debug_str:0000000000000b0b .LASF28
     /tmp/ccV3jiQe.s:3608   .debug_str:00000000000006b8 .LASF22
     /tmp/ccV3jiQe.s:3698   .debug_str:0000000000000a63 .LASF24
     /tmp/ccV3jiQe.s:3428   .debug_str:0000000000000145 .LASF23
     /tmp/ccV3jiQe.s:3626   .debug_str:0000000000000749 .LASF25
     /tmp/ccV3jiQe.s:3668   .debug_str:000000000000093e .LASF27
     /tmp/ccV3jiQe.s:3714   .debug_str:0000000000000aea .LASF29
     /tmp/ccV3jiQe.s:3394   .debug_str:000000000000001b .LASF30
     /tmp/ccV3jiQe.s:3628   .debug_str:000000000000076e .LASF31
     /tmp/ccV3jiQe.s:3542   .debug_str:00000000000004cf .LASF32
     /tmp/ccV3jiQe.s:3404   .debug_str:000000000000004a .LASF34
     /tmp/ccV3jiQe.s:3636   .debug_str:00000000000007bd .LASF33
     /tmp/ccV3jiQe.s:3544   .debug_str:00000000000004d9 .LASF35
     /tmp/ccV3jiQe.s:3696   .debug_str:0000000000000a5b .LASF47
     /tmp/ccV3jiQe.s:3536   .debug_str:0000000000000489 .LASF49
     /tmp/ccV3jiQe.s:3480   .debug_str:00000000000002c3 .LASF36
     /tmp/ccV3jiQe.s:3566   .debug_str:000000000000058c .LASF37
     /tmp/ccV3jiQe.s:3532   .debug_str:000000000000046c .LASF38
     /tmp/ccV3jiQe.s:3436   .debug_str:0000000000000175 .LASF40
     /tmp/ccV3jiQe.s:3674   .debug_str:000000000000097f .LASF162
     /tmp/ccV3jiQe.s:3624   .debug_str:0000000000000744 .LASF41
GAS LISTING /tmp/ccV3jiQe.s 			page 16


     /tmp/ccV3jiQe.s:3554   .debug_str:000000000000052d .LASF42
     /tmp/ccV3jiQe.s:3718   .debug_str:0000000000000b27 .LASF43
     /tmp/ccV3jiQe.s:3440   .debug_str:0000000000000188 .LASF44
     /tmp/ccV3jiQe.s:3398   .debug_str:0000000000000029 .LASF45
     /tmp/ccV3jiQe.s:3588   .debug_str:0000000000000641 .LASF46
     /tmp/ccV3jiQe.s:3660   .debug_str:0000000000000902 .LASF48
     /tmp/ccV3jiQe.s:3726   .debug_str:0000000000000b6f .LASF50
     /tmp/ccV3jiQe.s:3534   .debug_str:0000000000000471 .LASF56
     /tmp/ccV3jiQe.s:3600   .debug_str:000000000000068b .LASF163
     /tmp/ccV3jiQe.s:3672   .debug_str:0000000000000967 .LASF164
     /tmp/ccV3jiQe.s:3476   .debug_str:00000000000002b2 .LASF51
     /tmp/ccV3jiQe.s:3490   .debug_str:00000000000002fe .LASF52
     /tmp/ccV3jiQe.s:3720   .debug_str:0000000000000b34 .LASF53
     /tmp/ccV3jiQe.s:3514   .debug_str:00000000000003d9 .LASF54
     /tmp/ccV3jiQe.s:3574   .debug_str:00000000000005cc .LASF55
     /tmp/ccV3jiQe.s:3670   .debug_str:0000000000000948 .LASF57
     /tmp/ccV3jiQe.s:3728   .debug_str:0000000000000b83 .LASF58
     /tmp/ccV3jiQe.s:3584   .debug_str:000000000000060c .LASF59
     /tmp/ccV3jiQe.s:3610   .debug_str:00000000000006c8 .LASF60
     /tmp/ccV3jiQe.s:3424   .debug_str:0000000000000118 .LASF61
     /tmp/ccV3jiQe.s:3590   .debug_str:0000000000000656 .LASF62
     /tmp/ccV3jiQe.s:3446   .debug_str:00000000000001c8 .LASF63
     /tmp/ccV3jiQe.s:3438   .debug_str:0000000000000180 .LASF65
     /tmp/ccV3jiQe.s:3642   .debug_str:00000000000007d6 .LASF165
     /tmp/ccV3jiQe.s:3546   .debug_str:00000000000004fa .LASF66
     /tmp/ccV3jiQe.s:3612   .debug_str:00000000000006d3 .LASF67
     /tmp/ccV3jiQe.s:3650   .debug_str:00000000000008b4 .LASF68
     /tmp/ccV3jiQe.s:3418   .debug_str:00000000000000f1 .LASF69
     /tmp/ccV3jiQe.s:3578   .debug_str:00000000000005eb .LASF70
     /tmp/ccV3jiQe.s:3516   .debug_str:00000000000003fa .LASF71
     /tmp/ccV3jiQe.s:3602   .debug_str:0000000000000695 .LASF72
     /tmp/ccV3jiQe.s:3702   .debug_str:0000000000000aa4 .LASF73
     /tmp/ccV3jiQe.s:3644   .debug_str:00000000000007dc .LASF91
     /tmp/ccV3jiQe.s:3492   .debug_str:0000000000000320 .LASF74
     /tmp/ccV3jiQe.s:3460   .debug_str:000000000000023b .LASF75
     /tmp/ccV3jiQe.s:3568   .debug_str:00000000000005aa .LASF166
     /tmp/ccV3jiQe.s:3396   .debug_str:0000000000000024 .LASF76
     /tmp/ccV3jiQe.s:3712   .debug_str:0000000000000ae4 .LASF77
     /tmp/ccV3jiQe.s:3664   .debug_str:000000000000091e .LASF78
     /tmp/ccV3jiQe.s:3656   .debug_str:00000000000008d5 .LASF79
     /tmp/ccV3jiQe.s:3510   .debug_str:00000000000003b9 .LASF80
     /tmp/ccV3jiQe.s:3484   .debug_str:00000000000002d9 .LASF81
     /tmp/ccV3jiQe.s:3548   .debug_str:0000000000000500 .LASF82
     /tmp/ccV3jiQe.s:3596   .debug_str:000000000000066f .LASF83
     /tmp/ccV3jiQe.s:3462   .debug_str:0000000000000241 .LASF84
     /tmp/ccV3jiQe.s:3666   .debug_str:0000000000000926 .LASF142
     /tmp/ccV3jiQe.s:3468   .debug_str:000000000000026d .LASF85
     /tmp/ccV3jiQe.s:3502   .debug_str:000000000000036d .LASF86
     /tmp/ccV3jiQe.s:3690   .debug_str:0000000000000a27 .LASF87
     /tmp/ccV3jiQe.s:3558   .debug_str:000000000000054e .LASF88
     /tmp/ccV3jiQe.s:3452   .debug_str:0000000000000215 .LASF89
     /tmp/ccV3jiQe.s:3414   .debug_str:00000000000000c4 .LASF90
     /tmp/ccV3jiQe.s:3456   .debug_str:000000000000022d .LASF93
     /tmp/ccV3jiQe.s:3408   .debug_str:0000000000000078 .LASF95
     /tmp/ccV3jiQe.s:3606   .debug_str:00000000000006a7 .LASF92
     /tmp/ccV3jiQe.s:3420   .debug_str:00000000000000fa .LASF94
     /tmp/ccV3jiQe.s:3412   .debug_str:00000000000000ab .LASF96
GAS LISTING /tmp/ccV3jiQe.s 			page 17


     /tmp/ccV3jiQe.s:3638   .debug_str:00000000000007c6 .LASF97
     /tmp/ccV3jiQe.s:3694   .debug_str:0000000000000a44 .LASF98
     /tmp/ccV3jiQe.s:3708   .debug_str:0000000000000ac0 .LASF99
     /tmp/ccV3jiQe.s:3652   .debug_str:00000000000008be .LASF100
     /tmp/ccV3jiQe.s:3526   .debug_str:000000000000043b .LASF101
     /tmp/ccV3jiQe.s:3450   .debug_str:00000000000001fc .LASF102
     /tmp/ccV3jiQe.s:3582   .debug_str:00000000000005fc .LASF103
     /tmp/ccV3jiQe.s:3682   .debug_str:00000000000009c5 .LASF104
     /tmp/ccV3jiQe.s:3422   .debug_str:0000000000000108 .LASF105
     /tmp/ccV3jiQe.s:3680   .debug_str:00000000000009a9 .LASF106
     /tmp/ccV3jiQe.s:3614   .debug_str:00000000000006db .LASF107
     /tmp/ccV3jiQe.s:3616   .debug_str:00000000000006f0 .LASF108
     /tmp/ccV3jiQe.s:3550   .debug_str:000000000000050b .LASF109
     /tmp/ccV3jiQe.s:3688   .debug_str:0000000000000a10 .LASF110
     /tmp/ccV3jiQe.s:3486   .debug_str:00000000000002e4 .LASF111
     /tmp/ccV3jiQe.s:3560   .debug_str:000000000000055a .LASF112
     /tmp/ccV3jiQe.s:3564   .debug_str:000000000000057b .LASF113
     /tmp/ccV3jiQe.s:3442   .debug_str:000000000000019c .LASF114
     /tmp/ccV3jiQe.s:3706   .debug_str:0000000000000ab4 .LASF115
     /tmp/ccV3jiQe.s:3410   .debug_str:000000000000008b .LASF116
     /tmp/ccV3jiQe.s:3570   .debug_str:00000000000005af .LASF117
     /tmp/ccV3jiQe.s:3692   .debug_str:0000000000000a2c .LASF118
     /tmp/ccV3jiQe.s:3676   .debug_str:0000000000000984 .LASF119
     /tmp/ccV3jiQe.s:3686   .debug_str:00000000000009f7 .LASF120
     /tmp/ccV3jiQe.s:3646   .debug_str:00000000000007e4 .LASF121
     /tmp/ccV3jiQe.s:3500   .debug_str:0000000000000356 .LASF122
     /tmp/ccV3jiQe.s:3390   .debug_str:0000000000000000 .LASF123
     /tmp/ccV3jiQe.s:3472   .debug_str:0000000000000288 .LASF124
     /tmp/ccV3jiQe.s:3530   .debug_str:0000000000000460 .LASF125
     /tmp/ccV3jiQe.s:3678   .debug_str:0000000000000992 .LASF126
     /tmp/ccV3jiQe.s:3392   .debug_str:0000000000000010 .LASF127
     /tmp/ccV3jiQe.s:3522   .debug_str:000000000000041b .LASF128
     /tmp/ccV3jiQe.s:3406   .debug_str:000000000000006b .LASF129
     /tmp/ccV3jiQe.s:3528   .debug_str:0000000000000448 .LASF130
     /tmp/ccV3jiQe.s:3464   .debug_str:000000000000024a .LASF131
     /tmp/ccV3jiQe.s:3700   .debug_str:0000000000000a8c .LASF132
     /tmp/ccV3jiQe.s:3618   .debug_str:0000000000000710 .LASF133
     /tmp/ccV3jiQe.s:3654   .debug_str:00000000000008ce .LASF134
     /tmp/ccV3jiQe.s:3470   .debug_str:0000000000000279 .LASF135
     /tmp/ccV3jiQe.s:3540   .debug_str:00000000000004c1 .LASF136
     /tmp/ccV3jiQe.s:3524   .debug_str:0000000000000431 .LASF137
     /tmp/ccV3jiQe.s:3454   .debug_str:0000000000000223 .LASF138
     /tmp/ccV3jiQe.s:3498   .debug_str:000000000000033f .LASF139
     /tmp/ccV3jiQe.s:3426   .debug_str:0000000000000136 .LASF140
     /tmp/ccV3jiQe.s:3552   .debug_str:0000000000000516 .LASF141
     /tmp/ccV3jiQe.s:3538   .debug_str:00000000000004a8 .LASF167
     /tmp/ccV3jiQe.s:3586   .debug_str:0000000000000628 .LASF143
     /tmp/ccV3jiQe.s:3594   .debug_str:0000000000000668 .LASF144
     /tmp/ccV3jiQe.s:3556   .debug_str:0000000000000532 .LASF145
     /tmp/ccV3jiQe.s:3640   .debug_str:00000000000007d1 .LASF146
     /tmp/ccV3jiQe.s:3622   .debug_str:0000000000000734 .LASF147
     /tmp/ccV3jiQe.s:3724   .debug_str:0000000000000b56 .LASF148
     /tmp/ccV3jiQe.s:3632   .debug_str:000000000000079a .LASF149
     /tmp/ccV3jiQe.s:3458   .debug_str:0000000000000236 .LASF151
     /tmp/ccV3jiQe.s:3710   .debug_str:0000000000000ac6 .LASF150
     /tmp/ccV3jiQe.s:3634   .debug_str:00000000000007b6 .LASF152
     /tmp/ccV3jiQe.s:3448   .debug_str:00000000000001e3 .LASF153
GAS LISTING /tmp/ccV3jiQe.s 			page 18


     /tmp/ccV3jiQe.s:3478   .debug_str:00000000000002be .LASF154
     /tmp/ccV3jiQe.s:3508   .debug_str:00000000000003a5 .LASF168
     /tmp/ccV3jiQe.s:376    .text:0000000000000238 .LFB53
     /tmp/ccV3jiQe.s:462    .text:00000000000002d0 .LFE53
     /tmp/ccV3jiQe.s:3130   .debug_loc:0000000000000000 .LLST19
     /tmp/ccV3jiQe.s:3158   .debug_loc:0000000000000075 .LLST20
     /tmp/ccV3jiQe.s:401    .text:0000000000000268 .LVL36
     /tmp/ccV3jiQe.s:406    .text:0000000000000274 .LVL37
     /tmp/ccV3jiQe.s:426    .text:0000000000000298 .LVL40
     /tmp/ccV3jiQe.s:431    .text:00000000000002a4 .LVL41
     /tmp/ccV3jiQe.s:292    .text:00000000000001a4 .LFB52
     /tmp/ccV3jiQe.s:370    .text:0000000000000238 .LFE52
     /tmp/ccV3jiQe.s:3165   .debug_loc:0000000000000098 .LLST17
     /tmp/ccV3jiQe.s:3183   .debug_loc:00000000000000e4 .LLST18
     /tmp/ccV3jiQe.s:318    .text:00000000000001d8 .LVL27
     /tmp/ccV3jiQe.s:323    .text:00000000000001e4 .LVL28
     /tmp/ccV3jiQe.s:344    .text:000000000000020c .LVL30
     /tmp/ccV3jiQe.s:349    .text:0000000000000218 .LVL31
     /tmp/ccV3jiQe.s:211    .text:0000000000000110 .LFB51
     /tmp/ccV3jiQe.s:286    .text:00000000000001a4 .LFE51
     /tmp/ccV3jiQe.s:3194   .debug_loc:000000000000011a .LLST15
     /tmp/ccV3jiQe.s:3212   .debug_loc:0000000000000166 .LLST16
     /tmp/ccV3jiQe.s:238    .text:0000000000000148 .LVL20
     /tmp/ccV3jiQe.s:243    .text:0000000000000154 .LVL21
     /tmp/ccV3jiQe.s:263    .text:000000000000017c .LVL22
     /tmp/ccV3jiQe.s:268    .text:0000000000000188 .LVL23
     /tmp/ccV3jiQe.s:3400   .debug_str:0000000000000039 .LASF155
     /tmp/ccV3jiQe.s:3684   .debug_str:00000000000009e0 .LASF156
     /tmp/ccV3jiQe.s:163    .text:00000000000000e4 .LFB49
     /tmp/ccV3jiQe.s:195    .text:0000000000000110 .LFE49
     /tmp/ccV3jiQe.s:3226   .debug_loc:000000000000019f .LLST14
     /tmp/ccV3jiQe.s:183    .text:0000000000000100 .LVL17
     /tmp/ccV3jiQe.s:3704   .debug_str:0000000000000aaf .LASF158
     /tmp/ccV3jiQe.s:3722   .debug_str:0000000000000b3f .LASF157
     /tmp/ccV3jiQe.s:10     .text:0000000000000000 .LFB46
     /tmp/ccV3jiQe.s:155    .text:00000000000000e4 .LFE46
     /tmp/ccV3jiQe.s:3246   .debug_loc:00000000000001ed .LLST0
     /tmp/ccV3jiQe.s:3266   .debug_loc:000000000000023c .LLST1
     /tmp/ccV3jiQe.s:45     .text:0000000000000044 .LBB32
     /tmp/ccV3jiQe.s:64     .text:0000000000000060 .LBE32
     /tmp/ccV3jiQe.s:3280   .debug_loc:0000000000000275 .LLST2
     /tmp/ccV3jiQe.s:3288   .debug_loc:0000000000000299 .LLST3
     /tmp/ccV3jiQe.s:54     .text:0000000000000058 .LBB34
     /tmp/ccV3jiQe.s:62     .text:0000000000000060 .LBE34
     /tmp/ccV3jiQe.s:3295   .debug_loc:00000000000002bc .LLST4
     /tmp/ccV3jiQe.s:72     .text:0000000000000070 .LBB36
     /tmp/ccV3jiQe.s:87     .text:0000000000000080 .LBE36
     /tmp/ccV3jiQe.s:3304   .debug_loc:00000000000002e1 .LLST5
     /tmp/ccV3jiQe.s:3311   .debug_loc:0000000000000304 .LLST6
     /tmp/ccV3jiQe.s:78     .text:0000000000000078 .LBB38
     /tmp/ccV3jiQe.s:85     .text:0000000000000080 .LBE38
     /tmp/ccV3jiQe.s:3318   .debug_loc:0000000000000327 .LLST7
     /tmp/ccV3jiQe.s:95     .text:0000000000000090 .LBB40
     /tmp/ccV3jiQe.s:111    .text:00000000000000a4 .LBE40
     /tmp/ccV3jiQe.s:3327   .debug_loc:000000000000034c .LLST8
     /tmp/ccV3jiQe.s:3335   .debug_loc:0000000000000370 .LLST9
     /tmp/ccV3jiQe.s:102    .text:000000000000009c .LBB42
GAS LISTING /tmp/ccV3jiQe.s 			page 19


     /tmp/ccV3jiQe.s:109    .text:00000000000000a4 .LBE42
     /tmp/ccV3jiQe.s:3342   .debug_loc:0000000000000393 .LLST10
     /tmp/ccV3jiQe.s:119    .text:00000000000000b4 .LBB44
     /tmp/ccV3jiQe.s:134    .text:00000000000000c4 .LBE44
     /tmp/ccV3jiQe.s:3351   .debug_loc:00000000000003b8 .LLST11
     /tmp/ccV3jiQe.s:3359   .debug_loc:00000000000003dc .LLST12
     /tmp/ccV3jiQe.s:125    .text:00000000000000bc .LBB46
     /tmp/ccV3jiQe.s:132    .text:00000000000000c4 .LBE46
     /tmp/ccV3jiQe.s:3366   .debug_loc:00000000000003ff .LLST13
     /tmp/ccV3jiQe.s:44     .text:0000000000000044 .LVL2
     /tmp/ccV3jiQe.s:71     .text:0000000000000070 .LVL5
     /tmp/ccV3jiQe.s:94     .text:0000000000000090 .LVL8
     /tmp/ccV3jiQe.s:118    .text:00000000000000b4 .LVL11
     /tmp/ccV3jiQe.s:3504   .debug_str:000000000000037a .LASF169
     /tmp/ccV3jiQe.s:379    .text:0000000000000238 .LVL34
     /tmp/ccV3jiQe.s:399    .text:0000000000000260 .LVL35
     /tmp/ccV3jiQe.s:422    .text:000000000000028c .LVL39
     /tmp/ccV3jiQe.s:443    .text:00000000000002b4 .LVL42
     /tmp/ccV3jiQe.s:450    .text:00000000000002c0 .LVL44
     /tmp/ccV3jiQe.s:417    .text:0000000000000284 .LVL38
     /tmp/ccV3jiQe.s:446    .text:00000000000002b8 .LVL43
     /tmp/ccV3jiQe.s:295    .text:00000000000001a4 .LVL25
     /tmp/ccV3jiQe.s:316    .text:00000000000001d0 .LVL26
     /tmp/ccV3jiQe.s:362    .text:000000000000022c .LVL32
     /tmp/ccV3jiQe.s:330    .text:00000000000001f0 .LVL29
     /tmp/ccV3jiQe.s:365    .text:0000000000000230 .LVL33
     /tmp/ccV3jiQe.s:214    .text:0000000000000110 .LVL18
     /tmp/ccV3jiQe.s:236    .text:0000000000000140 .LVL19
     /tmp/ccV3jiQe.s:279    .text:0000000000000198 .LVL24
     /tmp/ccV3jiQe.s:168    .text:00000000000000e4 .LVL15
     /tmp/ccV3jiQe.s:181    .text:00000000000000f8 .LVL16
     /tmp/ccV3jiQe.s:14     .text:0000000000000000 .LVL0
     /tmp/ccV3jiQe.s:42     .text:000000000000003c .LVL1
     /tmp/ccV3jiQe.s:146    .text:00000000000000d4 .LVL14
     /tmp/ccV3jiQe.s:60     .text:0000000000000060 .LVL4
     /tmp/ccV3jiQe.s:53     .text:0000000000000058 .LVL3
     /tmp/ccV3jiQe.s:83     .text:0000000000000080 .LVL7
     /tmp/ccV3jiQe.s:77     .text:0000000000000078 .LVL6
     /tmp/ccV3jiQe.s:107    .text:00000000000000a4 .LVL10
     /tmp/ccV3jiQe.s:101    .text:000000000000009c .LVL9
     /tmp/ccV3jiQe.s:130    .text:00000000000000c4 .LVL13
     /tmp/ccV3jiQe.s:124    .text:00000000000000bc .LVL12
     /tmp/ccV3jiQe.s:471    .debug_info:0000000000000000 .Ldebug_info0
     /tmp/ccV3jiQe.s:198    .gcc_except_table:0000000000000000 .LLSDA49

UNDEFINED SYMBOLS
_ZN15KernelSemaphorenwEm
_ZTV15KernelSemaphore
_ZN15MemoryAllocator5kfreeEPv
__gxx_personality_v0
_ZN15KernelSemaphore4waitEv
_ZN15KernelSemaphore6signalEv
