GAS LISTING /tmp/ccj3k9Yc.s 			page 1


   1              		.file	"main.cpp"
   2              		.option pic
   3              		.option norelax
   4              		.text
   5              	.Ltext0:
   6              		.align	2
   8              	_ZL9userMainWPv:
   9              	.LFB46:
  10              		.file 1 "src/main.cpp"
   1:src/main.cpp  **** #include "../lib/console.h"
   2:src/main.cpp  **** #include "../h/MemoryAllocator.hpp"
   3:src/main.cpp  **** #include "../h/Queue.hpp"
   4:src/main.cpp  **** #include "../h/PCB.hpp"
   5:src/main.cpp  **** #include "../h/Riscv.hpp"
   6:src/main.cpp  **** #include "../h/syscall_c.hpp"
   7:src/main.cpp  **** #include "../h/KernelConsole.hpp"
   8:src/main.cpp  **** 
   9:src/main.cpp  **** 
  10:src/main.cpp  **** static void userMainW(void * p){
  11              		.loc 1 10 32
  12              		.cfi_startproc
  13              	.LVL0:
  14 0000 130101FF 		addi	sp,sp,-16
  15              		.cfi_def_cfa_offset 16
  16 0004 23341100 		sd	ra,8(sp)
  17 0008 23308100 		sd	s0,0(sp)
  18              		.cfi_offset 1, -8
  19              		.cfi_offset 8, -16
  20 000c 13040101 		addi	s0,sp,16
  21              		.cfi_def_cfa 8, 0
  11:src/main.cpp  ****     userMain();
  22              		.loc 1 11 5
  23              		.loc 1 11 13 is_stmt 0
  24 0010 97000000 		call	_Z8userMainv@plt
  24      E7800000 
  25              	.LVL1:
  12:src/main.cpp  **** }
  26              		.loc 1 12 1
  27 0018 83308100 		ld	ra,8(sp)
  28              		.cfi_restore 1
  29 001c 03340100 		ld	s0,0(sp)
  30              		.cfi_restore 8
  31              		.cfi_def_cfa 2, 16
  32 0020 13010101 		addi	sp,sp,16
  33              		.cfi_def_cfa_offset 0
  34 0024 67800000 		jr	ra
  35              		.cfi_endproc
  36              	.LFE46:
  38              		.align	2
  39              		.globl	main
  41              	main:
  42              	.LFB47:
  13:src/main.cpp  **** 
  14:src/main.cpp  **** int main(){
  43              		.loc 1 14 11 is_stmt 1
  44              		.cfi_startproc
  45 0028 130101FB 		addi	sp,sp,-80
GAS LISTING /tmp/ccj3k9Yc.s 			page 2


  46              		.cfi_def_cfa_offset 80
  47 002c 23341104 		sd	ra,72(sp)
  48 0030 23308104 		sd	s0,64(sp)
  49 0034 233C9102 		sd	s1,56(sp)
  50 0038 23382103 		sd	s2,48(sp)
  51 003c 23343103 		sd	s3,40(sp)
  52 0040 23304103 		sd	s4,32(sp)
  53 0044 233C5101 		sd	s5,24(sp)
  54 0048 23386101 		sd	s6,16(sp)
  55 004c 23347101 		sd	s7,8(sp)
  56              		.cfi_offset 1, -8
  57              		.cfi_offset 8, -16
  58              		.cfi_offset 9, -24
  59              		.cfi_offset 18, -32
  60              		.cfi_offset 19, -40
  61              		.cfi_offset 20, -48
  62              		.cfi_offset 21, -56
  63              		.cfi_offset 22, -64
  64              		.cfi_offset 23, -72
  65 0050 13040105 		addi	s0,sp,80
  66              		.cfi_def_cfa 8, 0
  15:src/main.cpp  ****     Riscv::w_stvec((uint64)&Riscv::supervisorTrap);
  67              		.loc 1 15 5
  68              		.loc 1 15 19 is_stmt 0
  69 0054 97070000 		la	a5,_ZN5Riscv14supervisorTrapEv
  69      83B70700 
  70              	.LVL2:
  71              	.LBB35:
  72              	.LBB36:
  73              		.file 2 "src/../h/Riscv.hpp"
   1:src/../h/Riscv.hpp **** //
   2:src/../h/Riscv.hpp **** // Created by os on 5/15/23.
   3:src/../h/Riscv.hpp **** //
   4:src/../h/Riscv.hpp **** 
   5:src/../h/Riscv.hpp **** #ifndef PROJECT_BASE_V1_1_RISCV_HPP
   6:src/../h/Riscv.hpp **** #define PROJECT_BASE_V1_1_RISCV_HPP
   7:src/../h/Riscv.hpp **** 
   8:src/../h/Riscv.hpp **** #include "../lib/hw.h"
   9:src/../h/Riscv.hpp **** #include "../h/userMain.hpp"
  10:src/../h/Riscv.hpp **** #include "../h/PCB.hpp"
  11:src/../h/Riscv.hpp **** 
  12:src/../h/Riscv.hpp **** class Riscv {
  13:src/../h/Riscv.hpp **** public:
  14:src/../h/Riscv.hpp ****     //non inline
  15:src/../h/Riscv.hpp ****     static void popSppSpie();
  16:src/../h/Riscv.hpp **** 
  17:src/../h/Riscv.hpp ****     static void pushRegisters();
  18:src/../h/Riscv.hpp **** 
  19:src/../h/Riscv.hpp ****     static void popRegisters();
  20:src/../h/Riscv.hpp **** 
  21:src/../h/Riscv.hpp ****     static uint64 r_scause();
  22:src/../h/Riscv.hpp **** 
  23:src/../h/Riscv.hpp ****     static void w_scause(uint64 scause);
  24:src/../h/Riscv.hpp **** 
  25:src/../h/Riscv.hpp ****     static uint64 r_sepc();
  26:src/../h/Riscv.hpp **** 
  27:src/../h/Riscv.hpp ****     static void w_sepc(uint64 sepc);
GAS LISTING /tmp/ccj3k9Yc.s 			page 3


  28:src/../h/Riscv.hpp **** 
  29:src/../h/Riscv.hpp ****     static uint64 r_stvec();
  30:src/../h/Riscv.hpp **** 
  31:src/../h/Riscv.hpp ****     static void w_stvec(uint64 stvec);
  32:src/../h/Riscv.hpp **** 
  33:src/../h/Riscv.hpp ****     static uint64 r_stval();
  34:src/../h/Riscv.hpp **** 
  35:src/../h/Riscv.hpp ****     static void w_stval(uint64 stval);
  36:src/../h/Riscv.hpp **** 
  37:src/../h/Riscv.hpp ****     enum BitMaskSip{
  38:src/../h/Riscv.hpp ****         SIP_SSIP = (1<<1),
  39:src/../h/Riscv.hpp ****         SIP_STIP = (1<<5),
  40:src/../h/Riscv.hpp ****         SIP_SEIP = (1<<9),
  41:src/../h/Riscv.hpp ****     };
  42:src/../h/Riscv.hpp **** 
  43:src/../h/Riscv.hpp ****     static void ms_sip(uint64 mask);
  44:src/../h/Riscv.hpp **** 
  45:src/../h/Riscv.hpp ****     static void mc_sip(uint64 mask);
  46:src/../h/Riscv.hpp **** 
  47:src/../h/Riscv.hpp ****     static uint64 r_sip();
  48:src/../h/Riscv.hpp **** 
  49:src/../h/Riscv.hpp ****     static void w_sip(uint64 sip);
  50:src/../h/Riscv.hpp **** 
  51:src/../h/Riscv.hpp ****     enum BitMaskSstatus{
  52:src/../h/Riscv.hpp ****         SSTATUS_SIE = (1<<1),
  53:src/../h/Riscv.hpp ****         SSTATUS_SPIE = (1<<5),
  54:src/../h/Riscv.hpp ****         SSTATUS_SPP = (1<<8),
  55:src/../h/Riscv.hpp ****     };
  56:src/../h/Riscv.hpp **** 
  57:src/../h/Riscv.hpp ****     static void ms_sstatus(uint64 mask);
  58:src/../h/Riscv.hpp **** 
  59:src/../h/Riscv.hpp ****     static void mc_sstatus(uint64 mask);
  60:src/../h/Riscv.hpp **** 
  61:src/../h/Riscv.hpp ****     static uint64 r_sstatus();
  62:src/../h/Riscv.hpp **** 
  63:src/../h/Riscv.hpp ****     static  void w_sstatus(uint64 sstatus);
  64:src/../h/Riscv.hpp **** 
  65:src/../h/Riscv.hpp ****     static void supervisorTrap();
  66:src/../h/Riscv.hpp **** 
  67:src/../h/Riscv.hpp ****     static void w_a0_sscratch();
  68:src/../h/Riscv.hpp **** 
  69:src/../h/Riscv.hpp **** private:
  70:src/../h/Riscv.hpp **** 
  71:src/../h/Riscv.hpp ****     // supervisor trap handler
  72:src/../h/Riscv.hpp ****     static void handleSupervisorTrap();
  73:src/../h/Riscv.hpp **** 
  74:src/../h/Riscv.hpp ****     static void userMainWrapper(void *);
  75:src/../h/Riscv.hpp **** 
  76:src/../h/Riscv.hpp ****     friend class MemoryAllocator;
  77:src/../h/Riscv.hpp ****     friend class PCB;
  78:src/../h/Riscv.hpp ****     friend class Semaphore;
  79:src/../h/Riscv.hpp **** };
  80:src/../h/Riscv.hpp **** 
  81:src/../h/Riscv.hpp **** inline uint64 Riscv::r_scause() {
  82:src/../h/Riscv.hpp ****     uint64 volatile scause;
  83:src/../h/Riscv.hpp ****     __asm__ volatile ("csrr %[scause], scause" : [scause] "=r"(scause));
  84:src/../h/Riscv.hpp ****     return scause;
GAS LISTING /tmp/ccj3k9Yc.s 			page 4


  85:src/../h/Riscv.hpp **** }
  86:src/../h/Riscv.hpp **** 
  87:src/../h/Riscv.hpp **** inline void Riscv::w_scause(uint64 scause) {
  88:src/../h/Riscv.hpp ****     __asm__ volatile ("csrw scause, %[scause]" : : [scause] "r"(scause));
  89:src/../h/Riscv.hpp **** }
  90:src/../h/Riscv.hpp **** 
  91:src/../h/Riscv.hpp **** inline uint64 Riscv::r_sepc() {
  92:src/../h/Riscv.hpp ****     uint64 volatile sepc;
  93:src/../h/Riscv.hpp ****     __asm__ volatile ("csrr %[sepc], sepc" : [sepc] "=r"(sepc));
  94:src/../h/Riscv.hpp ****     return sepc;
  95:src/../h/Riscv.hpp **** }
  96:src/../h/Riscv.hpp **** 
  97:src/../h/Riscv.hpp **** inline void Riscv::w_sepc(uint64 sepc) {
  98:src/../h/Riscv.hpp ****     __asm__ volatile ("csrw sepc, %[sepc]" : : [sepc] "r"(sepc));
  99:src/../h/Riscv.hpp **** }
 100:src/../h/Riscv.hpp **** 
 101:src/../h/Riscv.hpp **** inline uint64 Riscv::r_stvec() {
 102:src/../h/Riscv.hpp ****     uint64 volatile stvec;
 103:src/../h/Riscv.hpp ****     __asm__ volatile ("csrr %[stvec], stvec" : [stvec] "=r"(stvec));
 104:src/../h/Riscv.hpp ****     return stvec;
 105:src/../h/Riscv.hpp **** }
 106:src/../h/Riscv.hpp **** 
 107:src/../h/Riscv.hpp **** inline void Riscv::w_stvec(uint64 stvec) {
 108:src/../h/Riscv.hpp ****     __asm__ volatile ("csrw stvec, %[stvec]" : : [stvec] "r"(stvec));
  74              		.loc 2 108 5 is_stmt 1
  75              		.loc 2 108 69 is_stmt 0
  76              	#APP
  77              	# 108 "src/../h/Riscv.hpp" 1
 109              	}
  78              		csrw stvec, a5
  79              	# 0 "" 2
  80              	.LVL3:
  81              	#NO_APP
  82              	.LBE36:
  83              	.LBE35:
  16:src/main.cpp  ****     PCB* mainThr = new PCB(0,0,0,0);
  84              		.loc 1 16 5 is_stmt 1
  85              		.loc 1 16 35 is_stmt 0
  86 0060 13058005 		li	a0,88
  87 0064 97000000 		call	_ZN3PCBnwEm@plt
  87      E7800000 
  88              	.LVL4:
  89              	.LBB37:
  90              	.LBB38:
  91              		.file 3 "src/../h/PCB.hpp"
   1:src/../h/PCB.hpp **** //
   2:src/../h/PCB.hpp **** // Created by os on 5/16/23.
   3:src/../h/PCB.hpp **** //
   4:src/../h/PCB.hpp **** 
   5:src/../h/PCB.hpp **** #ifndef PROJECT_BASE_V1_1_PCB_HPP
   6:src/../h/PCB.hpp **** #define PROJECT_BASE_V1_1_PCB_HPP
   7:src/../h/PCB.hpp **** 
   8:src/../h/PCB.hpp **** #include "../lib/hw.h"
   9:src/../h/PCB.hpp **** #include "Scheduler.hpp"
  10:src/../h/PCB.hpp **** 
  11:src/../h/PCB.hpp **** class PCB {
  12:src/../h/PCB.hpp **** private:
GAS LISTING /tmp/ccj3k9Yc.s 			page 5


  13:src/../h/PCB.hpp ****     //constants
  14:src/../h/PCB.hpp ****     static uint64 constexpr STACK_SIZE = 1024;
  15:src/../h/PCB.hpp ****     static uint64 constexpr TIME_SLICE = 2;
  16:src/../h/PCB.hpp ****     //struct
  17:src/../h/PCB.hpp ****     struct Context{
  18:src/../h/PCB.hpp ****         uint64 ra;
  19:src/../h/PCB.hpp ****         uint64 sp;
  20:src/../h/PCB.hpp ****     };
  21:src/../h/PCB.hpp **** public:
  22:src/../h/PCB.hpp ****     ///change?
  23:src/../h/PCB.hpp ****     enum State{
  24:src/../h/PCB.hpp ****         READY, RUNNING, SUSPENDED, FINISHED, EXITING, SLEEPING
  25:src/../h/PCB.hpp ****     };
  26:src/../h/PCB.hpp **** 
  27:src/../h/PCB.hpp ****     using Body = void(*)(void *);
  28:src/../h/PCB.hpp ****     static PCB* running;
  29:src/../h/PCB.hpp **** private:
  30:src/../h/PCB.hpp ****     //saving regA4 because interpreter uses it
  31:src/../h/PCB.hpp ****     static uint64 regA4;
  32:src/../h/PCB.hpp **** 
  33:src/../h/PCB.hpp ****     ///change?
  34:src/../h/PCB.hpp ****     bool rcs=0;
  35:src/../h/PCB.hpp **** 
  36:src/../h/PCB.hpp ****     //pcb variables
  37:src/../h/PCB.hpp ****     State state;
  38:src/../h/PCB.hpp ****     Body body;
  39:src/../h/PCB.hpp ****     void* stack;
  40:src/../h/PCB.hpp ****     Context context;
  41:src/../h/PCB.hpp ****     uint64 timeSlice;
  42:src/../h/PCB.hpp ****     void * arg;
  43:src/../h/PCB.hpp ****     uint64 sleepingTime=0;
  44:src/../h/PCB.hpp **** 
  45:src/../h/PCB.hpp ****     //sleepyThread
  46:src/../h/PCB.hpp ****     static PCB* sleepyHead;
  47:src/../h/PCB.hpp ****     PCB* nextSleepy = nullptr;
  48:src/../h/PCB.hpp **** 
  49:src/../h/PCB.hpp ****     //variable for regime change
  50:src/../h/PCB.hpp ****     bool mainOrConsole=false;
  51:src/../h/PCB.hpp **** 
  52:src/../h/PCB.hpp ****     ///change?
  53:src/../h/PCB.hpp ****     uint64 sscratch;
  54:src/../h/PCB.hpp **** public:
  55:src/../h/PCB.hpp ****     explicit PCB(Body body, void* arg, void* stack, uint64 timeSlice):
  56:src/../h/PCB.hpp ****         state(READY),
  57:src/../h/PCB.hpp ****         body(body),
  58:src/../h/PCB.hpp ****         stack(stack),
  59:src/../h/PCB.hpp ****         context({
  60:src/../h/PCB.hpp ****             (uint64) &threadWrapper,
  61:src/../h/PCB.hpp ****             (uint64) ((char *) stack + DEFAULT_STACK_SIZE)
  62:src/../h/PCB.hpp ****         }),
  63:src/../h/PCB.hpp ****         timeSlice(timeSlice),
  64:src/../h/PCB.hpp ****         arg(arg)
  92              		.loc 3 64 16
  93 006c 23000500 		sb	zero,0(a0)
  94 0070 23340500 		sd	zero,8(a0)
  95 0074 23380500 		sd	zero,16(a0)
  96 0078 170B0000 		la	s6,_ZN3PCB13threadWrapperEv
GAS LISTING /tmp/ccj3k9Yc.s 			page 6


  96      033B0B00 
  97 0080 233C6501 		sd	s6,24(a0)
  98 0084 371A0000 		li	s4,4096
  99 0088 23304503 		sd	s4,32(a0)
 100 008c 23340502 		sd	zero,40(a0)
 101 0090 23380502 		sd	zero,48(a0)
 102 0094 233C0502 		sd	zero,56(a0)
 103 0098 23300504 		sd	zero,64(a0)
 104              	.LVL5:
 105              	.LBE38:
 106              	.LBE37:
  17:src/main.cpp  ****     mainThr->setMainOrConsole(true);
 107              		.loc 1 17 5 is_stmt 1
 108              	.LBB39:
 109              	.LBB40:
  65:src/../h/PCB.hpp ****     {}
  66:src/../h/PCB.hpp **** 
  67:src/../h/PCB.hpp ****     void* operator new (size_t);
  68:src/../h/PCB.hpp ****     void operator delete (void*);
  69:src/../h/PCB.hpp **** 
  70:src/../h/PCB.hpp ****     ~PCB();
  71:src/../h/PCB.hpp ****     static void contextSwitch(Context* oldContext, Context* runningContext);
  72:src/../h/PCB.hpp ****     static void dispatch();
  73:src/../h/PCB.hpp **** 
  74:src/../h/PCB.hpp ****     static uint64 timeSliceCounter;
  75:src/../h/PCB.hpp **** 
  76:src/../h/PCB.hpp ****     //wrapper
  77:src/../h/PCB.hpp ****     static void threadWrapper();
  78:src/../h/PCB.hpp **** 
  79:src/../h/PCB.hpp ****     //getters setters etc.
  80:src/../h/PCB.hpp ****     bool isFinished() const { return state==FINISHED;}
  81:src/../h/PCB.hpp ****     void start() { Scheduler::put(this);}
  82:src/../h/PCB.hpp ****     uint64 getTimeSlice() const { return timeSlice;}
  83:src/../h/PCB.hpp ****     void setSleepingTime(uint64 t) { sleepingTime=t;}
  84:src/../h/PCB.hpp ****     uint64  getSleepingTime() const {return sleepingTime;}
  85:src/../h/PCB.hpp ****     static void decreaseSleepingTime() {if(sleepyHead) sleepyHead->sleepingTime--;}
  86:src/../h/PCB.hpp ****     bool isSleeping() const { return state==SLEEPING;}
  87:src/../h/PCB.hpp ****     bool isSuspended() const {return state==SUSPENDED;}
  88:src/../h/PCB.hpp ****     void setMainOrConsole(bool mc) { mainOrConsole=mc;}
 110              		.loc 3 88 38
 111              		.loc 3 88 51 is_stmt 0
 112 009c 93071000 		li	a5,1
 113 00a0 2304F504 		sb	a5,72(a0)
 114              	.LVL6:
 115              	.LBE40:
 116              	.LBE39:
  18:src/main.cpp  ****     PCB::running=mainThr;
 117              		.loc 1 18 5 is_stmt 1
 118              		.loc 1 18 17 is_stmt 0
 119 00a4 97070000 		la	a5,_ZN3PCB7runningE
 119      83B70700 
 120 00ac 23B0A700 		sd	a0,0(a5)
  19:src/main.cpp  ****     mainThr->changeState(PCB::RUNNING);
 121              		.loc 1 19 5 is_stmt 1
 122              	.LVL7:
 123              	.LBB41:
 124              	.LBB42:
GAS LISTING /tmp/ccj3k9Yc.s 			page 7


  89:src/../h/PCB.hpp ****     void changeState(State s) { state=s;}
 125              		.loc 3 89 33
 126              		.loc 3 89 38 is_stmt 0
 127 00b0 930A1000 		li	s5,1
 128 00b4 23225501 		sw	s5,4(a0)
 129              	.LVL8:
 130              	.LBE42:
 131              	.LBE41:
  20:src/main.cpp  ****     PCB* userThr = new PCB(&userMainW,0, MemoryAllocator::kmalloc(DEFAULT_STACK_SIZE),DEFAULT_TIME_
 132              		.loc 1 20 5 is_stmt 1
 133              		.loc 1 20 66 is_stmt 0
 134 00b8 37150000 		li	a0,4096
 135              	.LVL9:
 136 00bc 97000000 		call	_ZN15MemoryAllocator7kmallocEm@plt
 136      E7800000 
 137              	.LVL10:
 138 00c4 93040500 		mv	s1,a0
 139              		.loc 1 20 105
 140 00c8 13058005 		li	a0,88
 141 00cc 97000000 		call	_ZN3PCBnwEm@plt
 141      E7800000 
 142              	.LVL11:
 143 00d4 13090500 		mv	s2,a0
 144              	.LVL12:
 145              	.LBB43:
 146              	.LBB44:
  64:src/../h/PCB.hpp ****     {}
 147              		.loc 3 64 16
 148 00d8 23000500 		sb	zero,0(a0)
 149 00dc 23220500 		sw	zero,4(a0)
 150 00e0 97070000 		lla	a5,_ZL9userMainWPv
 150      93870700 
 151 00e8 2334F500 		sd	a5,8(a0)
 152 00ec 23389500 		sd	s1,16(a0)
 153 00f0 233C6501 		sd	s6,24(a0)
  61:src/../h/PCB.hpp ****         }),
 154              		.loc 3 61 38
 155 00f4 B3844401 		add	s1,s1,s4
 156              	.LVL13:
  64:src/../h/PCB.hpp ****     {}
 157              		.loc 3 64 16
 158 00f8 23309502 		sd	s1,32(a0)
 159 00fc 930B2000 		li	s7,2
 160 0100 23347503 		sd	s7,40(a0)
 161 0104 23380502 		sd	zero,48(a0)
 162 0108 233C0502 		sd	zero,56(a0)
 163 010c 23300504 		sd	zero,64(a0)
 164 0110 23040504 		sb	zero,72(a0)
 165              	.LVL14:
 166              	.LBE44:
 167              	.LBE43:
  21:src/main.cpp  ****     userThr->start();
 168              		.loc 1 21 5 is_stmt 1
 169              	.LBB45:
 170              	.LBB46:
  81:src/../h/PCB.hpp ****     uint64 getTimeSlice() const { return timeSlice;}
 171              		.loc 3 81 20
GAS LISTING /tmp/ccj3k9Yc.s 			page 8


  81:src/../h/PCB.hpp ****     uint64 getTimeSlice() const { return timeSlice;}
 172              		.loc 3 81 34 is_stmt 0
 173 0114 97000000 		call	_ZN9Scheduler3putEP3PCB@plt
 173      E7800000 
 174              	.LVL15:
 175              	.LBE46:
 176              	.LBE45:
  22:src/main.cpp  **** 
  23:src/main.cpp  ****     KernelConsole::init();
 177              		.loc 1 23 5 is_stmt 1
 178              		.loc 1 23 24 is_stmt 0
 179 011c 97000000 		call	_ZN13KernelConsole4initEv@plt
 179      E7800000 
 180              	.LVL16:
  24:src/main.cpp  **** 
  25:src/main.cpp  ****     PCB* consoleThr = new PCB(&KernelConsole::consoleWrapper,0,MemoryAllocator::kmalloc(DEFAULT_STA
 181              		.loc 1 25 5 is_stmt 1
 182              		.loc 1 25 88 is_stmt 0
 183 0124 37150000 		li	a0,4096
 184 0128 97000000 		call	_ZN15MemoryAllocator7kmallocEm@plt
 184      E7800000 
 185              	.LVL17:
 186 0130 93090500 		mv	s3,a0
 187              		.loc 1 25 127
 188 0134 13058005 		li	a0,88
 189 0138 97000000 		call	_ZN3PCBnwEm@plt
 189      E7800000 
 190              	.LVL18:
 191 0140 93040500 		mv	s1,a0
 192              	.LVL19:
 193              	.LBB47:
 194              	.LBB48:
  64:src/../h/PCB.hpp ****     {}
 195              		.loc 3 64 16
 196 0144 23000500 		sb	zero,0(a0)
 197 0148 23220500 		sw	zero,4(a0)
 198 014c 97070000 		la	a5,_ZN13KernelConsole14consoleWrapperEPv
 198      83B70700 
 199 0154 2334F500 		sd	a5,8(a0)
 200 0158 23383501 		sd	s3,16(a0)
 201 015c 233C6501 		sd	s6,24(a0)
  61:src/../h/PCB.hpp ****         }),
 202              		.loc 3 61 38
 203 0160 B3894901 		add	s3,s3,s4
 204              	.LVL20:
  64:src/../h/PCB.hpp ****     {}
 205              		.loc 3 64 16
 206 0164 23303503 		sd	s3,32(a0)
 207 0168 23347503 		sd	s7,40(a0)
 208 016c 23380502 		sd	zero,48(a0)
 209 0170 233C0502 		sd	zero,56(a0)
 210 0174 23300504 		sd	zero,64(a0)
 211              	.LVL21:
 212              	.LBE48:
 213              	.LBE47:
  26:src/main.cpp  ****     consoleThr->setMainOrConsole(true);
 214              		.loc 1 26 5 is_stmt 1
GAS LISTING /tmp/ccj3k9Yc.s 			page 9


 215              	.LBB49:
 216              	.LBB50:
  88:src/../h/PCB.hpp ****     void changeState(State s) { state=s;}
 217              		.loc 3 88 38
  88:src/../h/PCB.hpp ****     void changeState(State s) { state=s;}
 218              		.loc 3 88 51 is_stmt 0
 219 0178 23045505 		sb	s5,72(a0)
 220              	.LVL22:
 221              	.LBE50:
 222              	.LBE49:
  27:src/main.cpp  ****     consoleThr->start();
 223              		.loc 1 27 5 is_stmt 1
 224              	.LBB51:
 225              	.LBB52:
  81:src/../h/PCB.hpp ****     uint64 getTimeSlice() const { return timeSlice;}
 226              		.loc 3 81 20
  81:src/../h/PCB.hpp ****     uint64 getTimeSlice() const { return timeSlice;}
 227              		.loc 3 81 34 is_stmt 0
 228 017c 97000000 		call	_ZN9Scheduler3putEP3PCB@plt
 228      E7800000 
 229              	.LVL23:
 230              	.LBE52:
 231              	.LBE51:
  28:src/main.cpp  **** 
  29:src/main.cpp  ****     //enable interrupts
  30:src/main.cpp  ****     Riscv::ms_sstatus(Riscv::SSTATUS_SIE);
 232              		.loc 1 30 5 is_stmt 1
 233              	.LBB53:
 234              	.LBB54:
 110:src/../h/Riscv.hpp **** 
 111:src/../h/Riscv.hpp **** inline uint64 Riscv::r_stval() {
 112:src/../h/Riscv.hpp ****     uint64 volatile stval;
 113:src/../h/Riscv.hpp ****     __asm__ volatile ("csrr %[stval], stval" : [stval] "=r"(stval));
 114:src/../h/Riscv.hpp ****     return stval;
 115:src/../h/Riscv.hpp **** }
 116:src/../h/Riscv.hpp **** 
 117:src/../h/Riscv.hpp **** inline void Riscv::w_stval(uint64 stval) {
 118:src/../h/Riscv.hpp ****     __asm__ volatile ("csrw stval, %[stval]" : : [stval] "r"(stval));
 119:src/../h/Riscv.hpp **** }
 120:src/../h/Riscv.hpp **** 
 121:src/../h/Riscv.hpp **** inline void Riscv::ms_sip(uint64 mask) {
 122:src/../h/Riscv.hpp ****     __asm__ volatile ("csrs sip, %[mask]" : : [mask] "r"(mask));
 123:src/../h/Riscv.hpp **** }
 124:src/../h/Riscv.hpp **** 
 125:src/../h/Riscv.hpp **** inline void Riscv::mc_sip(uint64 mask) {
 126:src/../h/Riscv.hpp ****     __asm__ volatile ("csrc sip, %[mask]" : : [mask] "r"(mask));
 127:src/../h/Riscv.hpp **** }
 128:src/../h/Riscv.hpp **** 
 129:src/../h/Riscv.hpp **** inline uint64 Riscv::r_sip() {
 130:src/../h/Riscv.hpp ****     uint64 volatile sip;
 131:src/../h/Riscv.hpp ****     __asm__ volatile ("csrr %[sip], sip" : [sip] "=r"(sip));
 132:src/../h/Riscv.hpp ****     return sip;
 133:src/../h/Riscv.hpp **** }
 134:src/../h/Riscv.hpp **** 
 135:src/../h/Riscv.hpp **** inline void Riscv::w_sip(uint64 sip) {
 136:src/../h/Riscv.hpp ****     __asm__ volatile ("csrw sip, %[sip]" : : [sip] "r"(sip));
 137:src/../h/Riscv.hpp **** }
GAS LISTING /tmp/ccj3k9Yc.s 			page 10


 138:src/../h/Riscv.hpp **** 
 139:src/../h/Riscv.hpp **** inline void Riscv::ms_sstatus(uint64 mask) {
 140:src/../h/Riscv.hpp ****     __asm__ volatile ("csrs sstatus, %[mask]" : : [mask] "r"(mask));
 235              		.loc 2 140 5
 236              		.loc 2 140 68 is_stmt 0
 237              	#APP
 238              	# 140 "src/../h/Riscv.hpp" 1
 141              	}
 239              		csrs sstatus, s7
 240              	# 0 "" 2
 241              	.LVL24:
 242              	#NO_APP
 243              	.L5:
 244              	.LBE54:
 245              	.LBE53:
  31:src/main.cpp  **** 
  32:src/main.cpp  ****     while(!userThr->isFinished()){
 246              		.loc 1 32 5 is_stmt 1
 247              		.loc 1 32 11
 248              	.LBB55:
 249              	.LBB56:
  80:src/../h/PCB.hpp ****     void start() { Scheduler::put(this);}
 250              		.loc 3 80 31
  80:src/../h/PCB.hpp ****     void start() { Scheduler::put(this);}
 251              		.loc 3 80 38 is_stmt 0
 252 0188 03274900 		lw	a4,4(s2)
 253              	.LVL25:
 254              	.LBE56:
 255              	.LBE55:
 256              		.loc 1 32 11
 257 018c 93073000 		li	a5,3
 258 0190 6308F700 		beq	a4,a5,.L4
  33:src/main.cpp  ****         //putc('m');
  34:src/main.cpp  ****         thread_dispatch();
 259              		.loc 1 34 9 is_stmt 1
 260              		.loc 1 34 24 is_stmt 0
 261 0194 97000000 		call	_Z15thread_dispatchv@plt
 261      E7800000 
 262              	.LVL26:
  32:src/main.cpp  ****         //putc('m');
 263              		.loc 1 32 5
 264 019c 6FF0DFFE 		j	.L5
 265              	.L4:
  35:src/main.cpp  ****     }
  36:src/main.cpp  ****     KernelConsole::setEnd();
 266              		.loc 1 36 5 is_stmt 1
 267              	.LBB57:
 268              	.LBB58:
 269              		.file 4 "src/../h/KernelConsole.hpp"
   1:src/../h/KernelConsole.hpp **** //
   2:src/../h/KernelConsole.hpp **** // Created by os on 5/29/23.
   3:src/../h/KernelConsole.hpp **** //
   4:src/../h/KernelConsole.hpp **** 
   5:src/../h/KernelConsole.hpp **** #ifndef PROJECT_BASE_V1_1_KERNELCONSOLE_HPP
   6:src/../h/KernelConsole.hpp **** #define PROJECT_BASE_V1_1_KERNELCONSOLE_HPP
   7:src/../h/KernelConsole.hpp **** 
   8:src/../h/KernelConsole.hpp **** #include "../lib/console.h"
GAS LISTING /tmp/ccj3k9Yc.s 			page 11


   9:src/../h/KernelConsole.hpp **** #include "../lib//hw.h"
  10:src/../h/KernelConsole.hpp **** #include "../h/Riscv.hpp"
  11:src/../h/KernelConsole.hpp **** #include "../h/ConsoleBuffer.hpp"
  12:src/../h/KernelConsole.hpp **** 
  13:src/../h/KernelConsole.hpp **** class KernelConsole {
  14:src/../h/KernelConsole.hpp ****     static ConsoleBuffer* inputBuffer;
  15:src/../h/KernelConsole.hpp ****     static ConsoleBuffer* outputBuffer;
  16:src/../h/KernelConsole.hpp **** public:
  17:src/../h/KernelConsole.hpp ****     static void init();
  18:src/../h/KernelConsole.hpp ****     static bool toEnd;
  19:src/../h/KernelConsole.hpp **** private:
  20:src/../h/KernelConsole.hpp ****     static bool initialized;
  21:src/../h/KernelConsole.hpp ****     static uint64 toPrint;
  22:src/../h/KernelConsole.hpp ****     static char __getc();
  23:src/../h/KernelConsole.hpp ****     static void __putc(char c);
  24:src/../h/KernelConsole.hpp **** 
  25:src/../h/KernelConsole.hpp ****     static void putcH();
  26:src/../h/KernelConsole.hpp ****     static void getcH();
  27:src/../h/KernelConsole.hpp **** public:
  28:src/../h/KernelConsole.hpp ****     static void consoleWrapper(void* p);
  29:src/../h/KernelConsole.hpp ****     static void setEnd() {toEnd=1;}
 270              		.loc 4 29 27
 271              		.loc 4 29 32 is_stmt 0
 272 01a0 97070000 		la	a5,_ZN13KernelConsole5toEndE
 272      83B70700 
 273 01a8 13071000 		li	a4,1
 274 01ac 2380E700 		sb	a4,0(a5)
 275              	.L7:
 276              	.LBE58:
 277              	.LBE57:
  37:src/main.cpp  **** 
  38:src/main.cpp  **** 
  39:src/main.cpp  **** 
  40:src/main.cpp  ****     while(!consoleThr->isFinished() && !consoleThr->isSuspended())
 278              		.loc 1 40 5 is_stmt 1
 279              		.loc 1 40 37
 280              	.LVL27:
 281              	.LBB59:
 282              	.LBB60:
  80:src/../h/PCB.hpp ****     void start() { Scheduler::put(this);}
 283              		.loc 3 80 31
  80:src/../h/PCB.hpp ****     void start() { Scheduler::put(this);}
 284              		.loc 3 80 38 is_stmt 0
 285 01b0 83A74400 		lw	a5,4(s1)
 286              	.LVL28:
 287              	.LBE60:
 288              	.LBE59:
 289              		.loc 1 40 37
 290 01b4 13073000 		li	a4,3
 291 01b8 638CE700 		beq	a5,a4,.L6
 292              	.LVL29:
  87:src/../h/PCB.hpp ****     void setMainOrConsole(bool mc) { mainOrConsole=mc;}
 293              		.loc 3 87 31 is_stmt 1
 294              		.loc 1 40 37 is_stmt 0
 295 01bc 13072000 		li	a4,2
 296 01c0 6388E700 		beq	a5,a4,.L6
  41:src/main.cpp  ****     {
GAS LISTING /tmp/ccj3k9Yc.s 			page 12


  42:src/main.cpp  ****         thread_dispatch();
 297              		.loc 1 42 9 is_stmt 1
 298              		.loc 1 42 24 is_stmt 0
 299 01c4 97000000 		call	_Z15thread_dispatchv@plt
 299      E7800000 
 300              	.LVL30:
  40:src/main.cpp  ****     {
 301              		.loc 1 40 5
 302 01cc 6FF05FFE 		j	.L7
 303              	.L6:
  43:src/main.cpp  ****     }
  44:src/main.cpp  **** 
  45:src/main.cpp  ****     //disable interrupts
  46:src/main.cpp  ****     Riscv::mc_sstatus(Riscv::SSTATUS_SIE);
 304              		.loc 1 46 5 is_stmt 1 discriminator 4
 305              	.LVL31:
 306              	.LBB61:
 307              	.LBB62:
 142:src/../h/Riscv.hpp **** 
 143:src/../h/Riscv.hpp **** inline void Riscv::mc_sstatus(uint64 mask) {
 144:src/../h/Riscv.hpp ****     __asm__ volatile ("csrc sstatus, %[mask]" : : [mask] "r"(mask));
 308              		.loc 2 144 5 discriminator 4
 309              		.loc 2 144 68 is_stmt 0 discriminator 4
 310 01d0 93072000 		li	a5,2
 311              	#APP
 312              	# 144 "src/../h/Riscv.hpp" 1
 145              	}
 313              		csrc sstatus, a5
 314              	# 0 "" 2
 315              	.LVL32:
 316              	#NO_APP
 317              	.LBE62:
 318              	.LBE61:
  47:src/main.cpp  ****     return 0;
 319              		.loc 1 47 5 is_stmt 1 discriminator 4
  48:src/main.cpp  **** }...
 320              		.loc 1 48 1 is_stmt 0 discriminator 4
 321 01d8 13050000 		li	a0,0
 322 01dc 83308104 		ld	ra,72(sp)
 323              		.cfi_restore 1
 324 01e0 03340104 		ld	s0,64(sp)
 325              		.cfi_restore 8
 326              		.cfi_def_cfa 2, 80
 327 01e4 83348103 		ld	s1,56(sp)
 328              		.cfi_restore 9
 329              	.LVL33:
 330 01e8 03390103 		ld	s2,48(sp)
 331              		.cfi_restore 18
 332              	.LVL34:
 333 01ec 83398102 		ld	s3,40(sp)
 334              		.cfi_restore 19
 335 01f0 033A0102 		ld	s4,32(sp)
 336              		.cfi_restore 20
 337 01f4 833A8101 		ld	s5,24(sp)
 338              		.cfi_restore 21
 339 01f8 033B0101 		ld	s6,16(sp)
 340              		.cfi_restore 22
GAS LISTING /tmp/ccj3k9Yc.s 			page 13


 341 01fc 833B8100 		ld	s7,8(sp)
 342              		.cfi_restore 23
 343 0200 13010105 		addi	sp,sp,80
 344              		.cfi_def_cfa_offset 0
 345 0204 67800000 		jr	ra
 346              		.cfi_endproc
 347              	.LFE47:
 349              	.Letext0:
 350              		.file 5 "src/../h/../lib/hw.h"
 351              		.file 6 "src/../h/MemoryAllocator.hpp"
 352              		.file 7 "src/../h/Scheduler.hpp"
 353              		.file 8 "src/../h/Queue.hpp"
 354              		.file 9 "src/../h/../h/ConsoleBuffer.hpp"
 355              		.file 10 "src/../h/syscall_c.hpp"
 356              		.file 11 "src/../h/../h/userMain.hpp"
GAS LISTING /tmp/ccj3k9Yc.s 			page 14

