GAS LISTING /tmp/cceEwYdx.s 			page 1


   1              		.file	"Scheduler.cpp"
   2              		.option pic
   3              		.option norelax
   4              		.text
   5              	.Ltext0:
   6              		.align	2
   8              	_Z41__static_initialization_and_destruction_0ii:
   9              	.LFB24:
  10              		.file 1 "src/Scheduler.cpp"
   1:src/Scheduler.cpp **** //
   2:src/Scheduler.cpp **** // Created by os on 5/16/23.
   3:src/Scheduler.cpp **** //
   4:src/Scheduler.cpp **** 
   5:src/Scheduler.cpp **** #include "../h/Scheduler.hpp"
   6:src/Scheduler.cpp **** 
   7:src/Scheduler.cpp **** Queue<PCB> Scheduler::readyQueue;
   8:src/Scheduler.cpp **** 
   9:src/Scheduler.cpp **** PCB *Scheduler::get() {
  10:src/Scheduler.cpp ****     return readyQueue.removeFirst();
  11:src/Scheduler.cpp **** }
  12:src/Scheduler.cpp **** 
  13:src/Scheduler.cpp **** void Scheduler::put(PCB *pcb) {
  14:src/Scheduler.cpp ****     readyQueue.insertLast(pcb);
  15:src/Scheduler.cpp **** }
  11              		.loc 1 15 1
  12              		.cfi_startproc
  13              	.LVL0:
  14 0000 130101FF 		addi	sp,sp,-16
  15              		.cfi_def_cfa_offset 16
  16 0004 23348100 		sd	s0,8(sp)
  17              		.cfi_offset 8, -8
  18 0008 13040101 		addi	s0,sp,16
  19              		.cfi_def_cfa 8, 0
  20              		.loc 1 15 1 is_stmt 0
  21 000c 93071000 		li	a5,1
  22 0010 6308F500 		beq	a0,a5,.L4
  23              	.L1:
  24 0014 03348100 		ld	s0,8(sp)
  25              		.cfi_remember_state
  26              		.cfi_restore 8
  27              		.cfi_def_cfa 2, 16
  28 0018 13010101 		addi	sp,sp,16
  29              		.cfi_def_cfa_offset 0
  30 001c 67800000 		jr	ra
  31              	.L4:
  32              		.cfi_restore_state
  33              		.loc 1 15 1 discriminator 1
  34 0020 B7070100 		li	a5,65536
  35 0024 9387F7FF 		addi	a5,a5,-1
  36 0028 E396F5FE 		bne	a1,a5,.L1
  37              	.LVL1:
  38              	.LBB15:
  39              	.LBB16:
  40              	.LBB17:
  41              		.file 2 "src/../h/Queue.hpp"
   1:src/../h/Queue.hpp **** //
   2:src/../h/Queue.hpp **** // Created by os on 5/16/23.
GAS LISTING /tmp/cceEwYdx.s 			page 2


   3:src/../h/Queue.hpp **** //
   4:src/../h/Queue.hpp **** 
   5:src/../h/Queue.hpp **** #ifndef PROJECT_BASE_V1_1_QUEUE_HPP
   6:src/../h/Queue.hpp **** #define PROJECT_BASE_V1_1_QUEUE_HPP
   7:src/../h/Queue.hpp **** 
   8:src/../h/Queue.hpp **** #include "../h/MemoryAllocator.hpp"
   9:src/../h/Queue.hpp **** template<typename T>
  10:src/../h/Queue.hpp **** class Queue{
  11:src/../h/Queue.hpp **** private:
  12:src/../h/Queue.hpp ****     struct Elem{
  13:src/../h/Queue.hpp ****         T* data;
  14:src/../h/Queue.hpp ****         Elem* next;
  15:src/../h/Queue.hpp **** 
  16:src/../h/Queue.hpp ****         Elem(T* data, Elem* next): data(data), next(next){}
  17:src/../h/Queue.hpp ****         void * operator new(size_t);
  18:src/../h/Queue.hpp ****         void operator delete(void *);
  19:src/../h/Queue.hpp ****     };
  20:src/../h/Queue.hpp **** 
  21:src/../h/Queue.hpp ****     Elem* head, *tail;
  22:src/../h/Queue.hpp ****     void * operator new(size_t);
  23:src/../h/Queue.hpp ****     void operator delete(void *);
  24:src/../h/Queue.hpp **** public:
  25:src/../h/Queue.hpp ****     Queue(): head(nullptr), tail(nullptr){}
  42              		.loc 2 25 41
  43 002c 97070000 		lla	a5,.LANCHOR0
  43      93870700 
  44 0034 23B00700 		sd	zero,0(a5)
  45 0038 23B40700 		sd	zero,8(a5)
  46              	.LVL2:
  47              	.LBE17:
  48              	.LBE16:
  49              	.LBE15:
  50              		.loc 1 15 1
  51 003c 6FF09FFD 		j	.L1
  52              		.cfi_endproc
  53              	.LFE24:
  55              		.align	2
  56              		.globl	_ZN9Scheduler3getEv
  58              	_ZN9Scheduler3getEv:
  59              	.LFB12:
   9:src/Scheduler.cpp ****     return readyQueue.removeFirst();
  60              		.loc 1 9 23 is_stmt 1
  61              		.cfi_startproc
  62 0040 130101FF 		addi	sp,sp,-16
  63              		.cfi_def_cfa_offset 16
  64 0044 23348100 		sd	s0,8(sp)
  65              		.cfi_offset 8, -8
  66 0048 13040101 		addi	s0,sp,16
  67              		.cfi_def_cfa 8, 0
  10:src/Scheduler.cpp **** }
  68              		.loc 1 10 5
  69              	.LVL3:
  70              	.LBB18:
  71              	.LBB19:
  26:src/../h/Queue.hpp **** 
  27:src/../h/Queue.hpp ****     Queue(const Queue<T> &) = delete;
  28:src/../h/Queue.hpp **** 
GAS LISTING /tmp/cceEwYdx.s 			page 3


  29:src/../h/Queue.hpp ****     Queue<T> &operator=(const Queue<T> &) = delete;
  30:src/../h/Queue.hpp **** 
  31:src/../h/Queue.hpp ****     void insertFirst(T* data){
  32:src/../h/Queue.hpp ****         Elem* e = new Elem(data, head);
  33:src/../h/Queue.hpp ****         head=e;
  34:src/../h/Queue.hpp ****         if(!tail)
  35:src/../h/Queue.hpp ****             tail=head;
  36:src/../h/Queue.hpp ****     }
  37:src/../h/Queue.hpp **** 
  38:src/../h/Queue.hpp ****     void insertLast(T* data){
  39:src/../h/Queue.hpp ****         Elem* e = new Elem(data, nullptr);
  40:src/../h/Queue.hpp ****         if(tail){
  41:src/../h/Queue.hpp ****             tail->next=e;
  42:src/../h/Queue.hpp ****             tail=e;
  43:src/../h/Queue.hpp ****         }
  44:src/../h/Queue.hpp ****         else
  45:src/../h/Queue.hpp ****             head=tail=e;
  46:src/../h/Queue.hpp ****     }
  47:src/../h/Queue.hpp **** 
  48:src/../h/Queue.hpp ****     T* removeFirst(){
  49:src/../h/Queue.hpp ****         if(!head)
  72              		.loc 2 49 13 is_stmt 0
  73 004c 17050000 		ld	a0,.LANCHOR0
  73      03350500 
  74              		.loc 2 49 9
  75 0054 630C0500 		beqz	a0,.L5
  76              	.LVL4:
  50:src/../h/Queue.hpp ****             return nullptr;
  51:src/../h/Queue.hpp ****         Elem* e = head;
  52:src/../h/Queue.hpp ****         head = head->next;
  77              		.loc 2 52 22
  78 0058 83378500 		ld	a5,8(a0)
  79              		.loc 2 52 9
  80 005c 17070000 		sd	a5,.LANCHOR0,a4
  80      2330F700 
  53:src/../h/Queue.hpp ****         if(!head)
  81              		.loc 2 53 9
  82 0064 638A0700 		beqz	a5,.L9
  83              	.L7:
  54:src/../h/Queue.hpp ****             tail=nullptr;
  55:src/../h/Queue.hpp ****         T* ret = e->data;
  84              		.loc 2 55 12
  85 0068 03350500 		ld	a0,0(a0)
  86              	.LVL5:
  87              	.L5:
  88              	.LBE19:
  89              	.LBE18:
  11:src/Scheduler.cpp **** 
  90              		.loc 1 11 1
  91 006c 03348100 		ld	s0,8(sp)
  92              		.cfi_remember_state
  93              		.cfi_restore 8
  94              		.cfi_def_cfa 2, 16
  95 0070 13010101 		addi	sp,sp,16
  96              		.cfi_def_cfa_offset 0
  97 0074 67800000 		jr	ra
  98              	.LVL6:
GAS LISTING /tmp/cceEwYdx.s 			page 4


  99              	.L9:
 100              		.cfi_restore_state
 101              	.LBB21:
 102              	.LBB20:
  54:src/../h/Queue.hpp ****             tail=nullptr;
 103              		.loc 2 54 13
 104 0078 97070000 		sd	zero,.LANCHOR0+8,a5
 104      23B00700 
 105 0080 6FF09FFE 		j	.L7
 106              	.LBE20:
 107              	.LBE21:
 108              		.cfi_endproc
 109              	.LFE12:
 111              		.section	.text._ZN5QueueI3PCBE4ElemnwEm,"axG",@progbits,_ZN5QueueI3PCBE4ElemnwEm,comdat
 112              		.align	2
 113              		.weak	_ZN5QueueI3PCBE4ElemnwEm
 115              	_ZN5QueueI3PCBE4ElemnwEm:
 116              	.LFB19:
  56:src/../h/Queue.hpp ****         //delete e;
  57:src/../h/Queue.hpp ****         return ret;
  58:src/../h/Queue.hpp ****     }
  59:src/../h/Queue.hpp **** 
  60:src/../h/Queue.hpp ****     T* peekFirst(){
  61:src/../h/Queue.hpp ****         if(!head)
  62:src/../h/Queue.hpp ****             return nullptr;
  63:src/../h/Queue.hpp ****         return head->data;
  64:src/../h/Queue.hpp ****     }
  65:src/../h/Queue.hpp **** 
  66:src/../h/Queue.hpp ****     T* removeLast(){
  67:src/../h/Queue.hpp ****         if(!head)
  68:src/../h/Queue.hpp ****             return nullptr;
  69:src/../h/Queue.hpp ****         Elem* prev=0;
  70:src/../h/Queue.hpp ****         for(Elem* curr = head; curr && curr!=tail; curr=curr->next)
  71:src/../h/Queue.hpp ****             prev=curr;
  72:src/../h/Queue.hpp ****         Elem* e = tail;
  73:src/../h/Queue.hpp ****         if(prev)
  74:src/../h/Queue.hpp ****             prev->next=nullptr;
  75:src/../h/Queue.hpp ****         else
  76:src/../h/Queue.hpp ****             head=nullptr;
  77:src/../h/Queue.hpp ****         tail=prev;
  78:src/../h/Queue.hpp ****         T* ret = e->data;
  79:src/../h/Queue.hpp ****         //delete e;
  80:src/../h/Queue.hpp ****         return ret;
  81:src/../h/Queue.hpp ****     }
  82:src/../h/Queue.hpp **** 
  83:src/../h/Queue.hpp ****     T* peekLast(){
  84:src/../h/Queue.hpp ****         if(!tail)
  85:src/../h/Queue.hpp ****             return nullptr;
  86:src/../h/Queue.hpp ****         return tail->data;
  87:src/../h/Queue.hpp ****     }
  88:src/../h/Queue.hpp **** 
  89:src/../h/Queue.hpp **** };
  90:src/../h/Queue.hpp **** 
  91:src/../h/Queue.hpp **** template<typename T>
  92:src/../h/Queue.hpp **** void Queue<T>::operator delete(void * ptr) {
  93:src/../h/Queue.hpp ****     MemoryAllocator::kfree(ptr);
  94:src/../h/Queue.hpp **** }
GAS LISTING /tmp/cceEwYdx.s 			page 5


  95:src/../h/Queue.hpp **** 
  96:src/../h/Queue.hpp **** template<typename T>
  97:src/../h/Queue.hpp **** void *Queue<T>::operator new(size_t size) {
  98:src/../h/Queue.hpp ****     return MemoryAllocator::kmalloc(size);
  99:src/../h/Queue.hpp **** }
 100:src/../h/Queue.hpp **** 
 101:src/../h/Queue.hpp **** template<typename T>
 102:src/../h/Queue.hpp **** void Queue<T>::Elem::operator delete(void * ptr) {
 103:src/../h/Queue.hpp ****     MemoryAllocator::kfree(ptr);
 104:src/../h/Queue.hpp **** }
 105:src/../h/Queue.hpp **** 
 106:src/../h/Queue.hpp **** template<typename T>
 107:src/../h/Queue.hpp **** void *Queue<T>::Elem::operator new(size_t size) {
 117              		.loc 2 107 7 is_stmt 1
 118              		.cfi_startproc
 119              	.LVL7:
 120 0000 130101FF 		addi	sp,sp,-16
 121              		.cfi_def_cfa_offset 16
 122 0004 23341100 		sd	ra,8(sp)
 123 0008 23308100 		sd	s0,0(sp)
 124              		.cfi_offset 1, -8
 125              		.cfi_offset 8, -16
 126 000c 13040101 		addi	s0,sp,16
 127              		.cfi_def_cfa 8, 0
 108:src/../h/Queue.hpp ****     return MemoryAllocator::kmalloc(size);
 128              		.loc 2 108 36 is_stmt 0
 129 0010 97000000 		call	_ZN15MemoryAllocator7kmallocEm@plt
 129      E7800000 
 130              	.LVL8:
 109:src/../h/Queue.hpp **** }
 131              		.loc 2 109 1
 132 0018 83308100 		ld	ra,8(sp)
 133              		.cfi_restore 1
 134 001c 03340100 		ld	s0,0(sp)
 135              		.cfi_restore 8
 136              		.cfi_def_cfa 2, 16
 137 0020 13010101 		addi	sp,sp,16
 138              		.cfi_def_cfa_offset 0
 139 0024 67800000 		jr	ra
 140              		.cfi_endproc
 141              	.LFE19:
 143              		.text
 144              		.align	2
 145              		.globl	_ZN9Scheduler3putEP3PCB
 147              	_ZN9Scheduler3putEP3PCB:
 148              	.LFB13:
  13:src/Scheduler.cpp ****     readyQueue.insertLast(pcb);
 149              		.loc 1 13 31 is_stmt 1
 150              		.cfi_startproc
 151              	.LVL9:
 152 0084 130101FE 		addi	sp,sp,-32
 153              		.cfi_def_cfa_offset 32
 154 0088 233C1100 		sd	ra,24(sp)
 155 008c 23388100 		sd	s0,16(sp)
 156 0090 23349100 		sd	s1,8(sp)
 157              		.cfi_offset 1, -8
 158              		.cfi_offset 8, -16
GAS LISTING /tmp/cceEwYdx.s 			page 6


 159              		.cfi_offset 9, -24
 160 0094 13040102 		addi	s0,sp,32
 161              		.cfi_def_cfa 8, 0
 162 0098 93040500 		mv	s1,a0
  14:src/Scheduler.cpp **** }
 163              		.loc 1 14 5
 164              	.LVL10:
 165              	.LBB22:
 166              	.LBB23:
  39:src/../h/Queue.hpp ****         if(tail){
 167              		.loc 2 39 19 is_stmt 0
 168 009c 13050001 		li	a0,16
 169              	.LVL11:
 170 00a0 97000000 		call	_ZN5QueueI3PCBE4ElemnwEm
 170      E7800000 
 171              	.LVL12:
 172              	.LBB24:
 173              	.LBB25:
  16:src/../h/Queue.hpp ****         void * operator new(size_t);
 174              		.loc 2 16 57
 175 00a8 23309500 		sd	s1,0(a0)
 176 00ac 23340500 		sd	zero,8(a0)
 177              	.LVL13:
 178              	.LBE25:
 179              	.LBE24:
  40:src/../h/Queue.hpp ****             tail->next=e;
 180              		.loc 2 40 12
 181 00b0 97070000 		ld	a5,.LANCHOR0+8
 181      83B70700 
  40:src/../h/Queue.hpp ****             tail->next=e;
 182              		.loc 2 40 9
 183 00b8 63820702 		beqz	a5,.L13
  41:src/../h/Queue.hpp ****             tail=e;
 184              		.loc 2 41 13
 185 00bc 23B4A700 		sd	a0,8(a5)
  42:src/../h/Queue.hpp ****         }
 186              		.loc 2 42 13
 187 00c0 97070000 		sd	a0,.LANCHOR0+8,a5
 187      23B0A700 
 188              	.LVL14:
 189              	.L12:
 190              	.LBE23:
 191              	.LBE22:
 192              		.loc 1 15 1
 193 00c8 83308101 		ld	ra,24(sp)
 194              		.cfi_remember_state
 195              		.cfi_restore 1
 196 00cc 03340101 		ld	s0,16(sp)
 197              		.cfi_restore 8
 198              		.cfi_def_cfa 2, 32
 199 00d0 83348100 		ld	s1,8(sp)
 200              		.cfi_restore 9
 201              	.LVL15:
 202 00d4 13010102 		addi	sp,sp,32
 203              		.cfi_def_cfa_offset 0
 204 00d8 67800000 		jr	ra
 205              	.LVL16:
GAS LISTING /tmp/cceEwYdx.s 			page 7


 206              	.L13:
 207              		.cfi_restore_state
 208              	.LBB27:
 209              	.LBB26:
  45:src/../h/Queue.hpp ****     }
 210              		.loc 2 45 13
 211 00dc 97070000 		lla	a5,.LANCHOR0
 211      93870700 
 212 00e4 23B4A700 		sd	a0,8(a5)
 213 00e8 23B0A700 		sd	a0,0(a5)
 214              	.LVL17:
 215              	.LBE26:
 216              	.LBE27:
 217              		.loc 1 15 1
 218 00ec 6FF0DFFD 		j	.L12
 219              		.cfi_endproc
 220              	.LFE13:
 222              		.align	2
 224              	_GLOBAL__sub_I__ZN9Scheduler10readyQueueE:
 225              	.LFB25:
 226              		.loc 1 15 1 is_stmt 1
 227              		.cfi_startproc
 228 00f0 130101FF 		addi	sp,sp,-16
 229              		.cfi_def_cfa_offset 16
 230 00f4 23341100 		sd	ra,8(sp)
 231 00f8 23308100 		sd	s0,0(sp)
 232              		.cfi_offset 1, -8
 233              		.cfi_offset 8, -16
 234 00fc 13040101 		addi	s0,sp,16
 235              		.cfi_def_cfa 8, 0
 236              		.loc 1 15 1 is_stmt 0
 237 0100 B7050100 		li	a1,65536
 238 0104 9385F5FF 		addi	a1,a1,-1
 239 0108 13051000 		li	a0,1
 240 010c 97000000 		call	_Z41__static_initialization_and_destruction_0ii
 240      E7800000 
 241              	.LVL18:
 242 0114 83308100 		ld	ra,8(sp)
 243              		.cfi_restore 1
 244 0118 03340100 		ld	s0,0(sp)
 245              		.cfi_restore 8
 246              		.cfi_def_cfa 2, 16
 247 011c 13010101 		addi	sp,sp,16
 248              		.cfi_def_cfa_offset 0
 249 0120 67800000 		jr	ra
 250              		.cfi_endproc
 251              	.LFE25:
 253              		.section	.init_array,"aw"
 254              		.align	3
 255 0000 00000000 		.dword	_GLOBAL__sub_I__ZN9Scheduler10readyQueueE
 255      00000000 
 256              		.globl	_ZN9Scheduler10readyQueueE
 257              		.bss
 258              		.align	3
 259              		.set	.LANCHOR0,. + 0
 262              	_ZN9Scheduler10readyQueueE:
 263 0000 00000000 		.zero	16
GAS LISTING /tmp/cceEwYdx.s 			page 8


 263      00000000 
 263      00000000 
 263      00000000 
 264              		.text
 265              	.Letext0:
 266              		.file 3 "src/../h/../h/../lib/hw.h"
 267              		.file 4 "src/../h/../h/MemoryAllocator.hpp"
 268              		.file 5 "src/../h/Scheduler.hpp"
GAS LISTING /tmp/cceEwYdx.s 			page 9


DEFINED SYMBOLS
                            *ABS*:0000000000000000 Scheduler.cpp
     /tmp/cceEwYdx.s:8      .text:0000000000000000 _Z41__static_initialization_and_destruction_0ii
     /tmp/cceEwYdx.s:12     .text:0000000000000000 .L0 
     /tmp/cceEwYdx.s:14     .text:0000000000000000 .L0 
     /tmp/cceEwYdx.s:15     .text:0000000000000004 .L0 
     /tmp/cceEwYdx.s:17     .text:0000000000000008 .L0 
     /tmp/cceEwYdx.s:19     .text:000000000000000c .L0 
     /tmp/cceEwYdx.s:21     .text:000000000000000c .L0 
     /tmp/cceEwYdx.s:25     .text:0000000000000018 .L0 
     /tmp/cceEwYdx.s:26     .text:0000000000000018 .L0 
     /tmp/cceEwYdx.s:27     .text:0000000000000018 .L0 
     /tmp/cceEwYdx.s:29     .text:000000000000001c .L0 
     /tmp/cceEwYdx.s:32     .text:0000000000000020 .L0 
     /tmp/cceEwYdx.s:34     .text:0000000000000020 .L0 
     /tmp/cceEwYdx.s:43     .text:000000000000002c .L0 
     /tmp/cceEwYdx.s:51     .text:000000000000003c .L0 
     /tmp/cceEwYdx.s:52     .text:0000000000000040 .L0 
     /tmp/cceEwYdx.s:58     .text:0000000000000040 _ZN9Scheduler3getEv
     /tmp/cceEwYdx.s:61     .text:0000000000000040 .L0 
     /tmp/cceEwYdx.s:62     .text:0000000000000040 .L0 
     /tmp/cceEwYdx.s:63     .text:0000000000000044 .L0 
     /tmp/cceEwYdx.s:65     .text:0000000000000048 .L0 
     /tmp/cceEwYdx.s:67     .text:000000000000004c .L0 
     /tmp/cceEwYdx.s:72     .text:000000000000004c .L0 
     /tmp/cceEwYdx.s:73     .text:000000000000004c .L0 
     /tmp/cceEwYdx.s:75     .text:0000000000000054 .L0 
     /tmp/cceEwYdx.s:78     .text:0000000000000058 .L0 
     /tmp/cceEwYdx.s:80     .text:000000000000005c .L0 
     /tmp/cceEwYdx.s:82     .text:0000000000000064 .L0 
     /tmp/cceEwYdx.s:85     .text:0000000000000068 .L0 
     /tmp/cceEwYdx.s:91     .text:000000000000006c .L0 
     /tmp/cceEwYdx.s:92     .text:0000000000000070 .L0 
     /tmp/cceEwYdx.s:93     .text:0000000000000070 .L0 
     /tmp/cceEwYdx.s:94     .text:0000000000000070 .L0 
     /tmp/cceEwYdx.s:96     .text:0000000000000074 .L0 
     /tmp/cceEwYdx.s:100    .text:0000000000000078 .L0 
     /tmp/cceEwYdx.s:104    .text:0000000000000078 .L0 
     /tmp/cceEwYdx.s:108    .text:0000000000000084 .L0 
     /tmp/cceEwYdx.s:115    .text._ZN5QueueI3PCBE4ElemnwEm:0000000000000000 _ZN5QueueI3PCBE4ElemnwEm
     /tmp/cceEwYdx.s:118    .text._ZN5QueueI3PCBE4ElemnwEm:0000000000000000 .L0 
     /tmp/cceEwYdx.s:120    .text._ZN5QueueI3PCBE4ElemnwEm:0000000000000000 .L0 
     /tmp/cceEwYdx.s:121    .text._ZN5QueueI3PCBE4ElemnwEm:0000000000000004 .L0 
     /tmp/cceEwYdx.s:124    .text._ZN5QueueI3PCBE4ElemnwEm:000000000000000c .L0 
     /tmp/cceEwYdx.s:125    .text._ZN5QueueI3PCBE4ElemnwEm:000000000000000c .L0 
     /tmp/cceEwYdx.s:127    .text._ZN5QueueI3PCBE4ElemnwEm:0000000000000010 .L0 
     /tmp/cceEwYdx.s:129    .text._ZN5QueueI3PCBE4ElemnwEm:0000000000000010 .L0 
     /tmp/cceEwYdx.s:132    .text._ZN5QueueI3PCBE4ElemnwEm:0000000000000018 .L0 
     /tmp/cceEwYdx.s:133    .text._ZN5QueueI3PCBE4ElemnwEm:000000000000001c .L0 
     /tmp/cceEwYdx.s:135    .text._ZN5QueueI3PCBE4ElemnwEm:0000000000000020 .L0 
     /tmp/cceEwYdx.s:136    .text._ZN5QueueI3PCBE4ElemnwEm:0000000000000020 .L0 
     /tmp/cceEwYdx.s:138    .text._ZN5QueueI3PCBE4ElemnwEm:0000000000000024 .L0 
     /tmp/cceEwYdx.s:140    .text._ZN5QueueI3PCBE4ElemnwEm:0000000000000028 .L0 
     /tmp/cceEwYdx.s:147    .text:0000000000000084 _ZN9Scheduler3putEP3PCB
     /tmp/cceEwYdx.s:150    .text:0000000000000084 .L0 
     /tmp/cceEwYdx.s:152    .text:0000000000000084 .L0 
     /tmp/cceEwYdx.s:153    .text:0000000000000088 .L0 
GAS LISTING /tmp/cceEwYdx.s 			page 10


     /tmp/cceEwYdx.s:157    .text:0000000000000094 .L0 
     /tmp/cceEwYdx.s:158    .text:0000000000000094 .L0 
     /tmp/cceEwYdx.s:159    .text:0000000000000094 .L0 
     /tmp/cceEwYdx.s:161    .text:0000000000000098 .L0 
     /tmp/cceEwYdx.s:167    .text:000000000000009c .L0 
     /tmp/cceEwYdx.s:168    .text:000000000000009c .L0 
     /tmp/cceEwYdx.s:175    .text:00000000000000a8 .L0 
     /tmp/cceEwYdx.s:181    .text:00000000000000b0 .L0 
     /tmp/cceEwYdx.s:183    .text:00000000000000b8 .L0 
     /tmp/cceEwYdx.s:185    .text:00000000000000bc .L0 
     /tmp/cceEwYdx.s:187    .text:00000000000000c0 .L0 
     /tmp/cceEwYdx.s:193    .text:00000000000000c8 .L0 
     /tmp/cceEwYdx.s:194    .text:00000000000000cc .L0 
     /tmp/cceEwYdx.s:195    .text:00000000000000cc .L0 
     /tmp/cceEwYdx.s:197    .text:00000000000000d0 .L0 
     /tmp/cceEwYdx.s:198    .text:00000000000000d0 .L0 
     /tmp/cceEwYdx.s:200    .text:00000000000000d4 .L0 
     /tmp/cceEwYdx.s:203    .text:00000000000000d8 .L0 
     /tmp/cceEwYdx.s:207    .text:00000000000000dc .L0 
     /tmp/cceEwYdx.s:211    .text:00000000000000dc .L0 
     /tmp/cceEwYdx.s:218    .text:00000000000000ec .L0 
     /tmp/cceEwYdx.s:219    .text:00000000000000f0 .L0 
     /tmp/cceEwYdx.s:224    .text:00000000000000f0 _GLOBAL__sub_I__ZN9Scheduler10readyQueueE
     /tmp/cceEwYdx.s:227    .text:00000000000000f0 .L0 
     /tmp/cceEwYdx.s:228    .text:00000000000000f0 .L0 
     /tmp/cceEwYdx.s:229    .text:00000000000000f4 .L0 
     /tmp/cceEwYdx.s:232    .text:00000000000000fc .L0 
     /tmp/cceEwYdx.s:233    .text:00000000000000fc .L0 
     /tmp/cceEwYdx.s:235    .text:0000000000000100 .L0 
     /tmp/cceEwYdx.s:237    .text:0000000000000100 .L0 
     /tmp/cceEwYdx.s:243    .text:0000000000000118 .L0 
     /tmp/cceEwYdx.s:245    .text:000000000000011c .L0 
     /tmp/cceEwYdx.s:246    .text:000000000000011c .L0 
     /tmp/cceEwYdx.s:248    .text:0000000000000120 .L0 
     /tmp/cceEwYdx.s:250    .text:0000000000000124 .L0 
     /tmp/cceEwYdx.s:262    .bss:0000000000000000 _ZN9Scheduler10readyQueueE
     /tmp/cceEwYdx.s:259    .bss:0000000000000000 .LANCHOR0
     /tmp/cceEwYdx.s:269    .text:0000000000000124 .L0 
     /tmp/cceEwYdx.s:143    .text._ZN5QueueI3PCBE4ElemnwEm:0000000000000028 .L0 
     /tmp/cceEwYdx.s:43     .text:000000000000002c .L0 
     /tmp/cceEwYdx.s:73     .text:000000000000004c .L0 
     /tmp/cceEwYdx.s:80     .text:000000000000005c .L0 
     /tmp/cceEwYdx.s:104    .text:0000000000000078 .L0 
     /tmp/cceEwYdx.s:181    .text:00000000000000b0 .L0 
     /tmp/cceEwYdx.s:187    .text:00000000000000c0 .L0 
     /tmp/cceEwYdx.s:211    .text:00000000000000dc .L0 
     /tmp/cceEwYdx.s:31     .text:0000000000000020 .L4
     /tmp/cceEwYdx.s:23     .text:0000000000000014 .L1
     /tmp/cceEwYdx.s:87     .text:000000000000006c .L5
     /tmp/cceEwYdx.s:99     .text:0000000000000078 .L9
     /tmp/cceEwYdx.s:83     .text:0000000000000068 .L7
     /tmp/cceEwYdx.s:206    .text:00000000000000dc .L13
     /tmp/cceEwYdx.s:189    .text:00000000000000c8 .L12
     /tmp/cceEwYdx.s:1099   .debug_abbrev:0000000000000000 .Ldebug_abbrev0
     /tmp/cceEwYdx.s:2295   .debug_str:000000000000056c .LASF78
     /tmp/cceEwYdx.s:2309   .debug_str:0000000000000671 .LASF79
     /tmp/cceEwYdx.s:2181   .debug_str:000000000000016a .LASF80
GAS LISTING /tmp/cceEwYdx.s 			page 11


     /tmp/cceEwYdx.s:2125   .debug_ranges:0000000000000000 .Ldebug_ranges0
     /tmp/cceEwYdx.s:2145   .debug_line:0000000000000000 .Ldebug_line0
     /tmp/cceEwYdx.s:2249   .debug_str:00000000000003e7 .LASF0
     /tmp/cceEwYdx.s:2255   .debug_str:0000000000000422 .LASF1
     /tmp/cceEwYdx.s:2241   .debug_str:00000000000003b7 .LASF2
     /tmp/cceEwYdx.s:2223   .debug_str:000000000000032a .LASF4
     /tmp/cceEwYdx.s:2279   .debug_str:00000000000004de .LASF3
     /tmp/cceEwYdx.s:2161   .debug_str:0000000000000093 .LASF5
     /tmp/cceEwYdx.s:2257   .debug_str:0000000000000435 .LASF6
     /tmp/cceEwYdx.s:2247   .debug_str:00000000000003d4 .LASF7
     /tmp/cceEwYdx.s:2307   .debug_str:0000000000000661 .LASF8
     /tmp/cceEwYdx.s:2215   .debug_str:00000000000002f3 .LASF9
     /tmp/cceEwYdx.s:2263   .debug_str:0000000000000457 .LASF10
     /tmp/cceEwYdx.s:2299   .debug_str:000000000000063c .LASF11
     /tmp/cceEwYdx.s:2163   .debug_str:000000000000009a .LASF12
     /tmp/cceEwYdx.s:2151   .debug_str:000000000000003a .LASF13
     /tmp/cceEwYdx.s:2173   .debug_str:0000000000000133 .LASF14
     /tmp/cceEwYdx.s:2275   .debug_str:000000000000049e .LASF15
     /tmp/cceEwYdx.s:2183   .debug_str:000000000000018d .LASF16
     /tmp/cceEwYdx.s:2237   .debug_str:0000000000000398 .LASF39
     /tmp/cceEwYdx.s:2227   .debug_str:000000000000033c .LASF43
     /tmp/cceEwYdx.s:2291   .debug_str:000000000000054b .LASF17
     /tmp/cceEwYdx.s:2319   .debug_str:00000000000006c8 .LASF18
     /tmp/cceEwYdx.s:2155   .debug_str:000000000000006b .LASF19
     /tmp/cceEwYdx.s:2253   .debug_str:0000000000000419 .LASF20
     /tmp/cceEwYdx.s:2317   .debug_str:00000000000006bc .LASF21
     /tmp/cceEwYdx.s:2259   .debug_str:0000000000000448 .LASF26
     /tmp/cceEwYdx.s:2293   .debug_str:0000000000000550 .LASF28
     /tmp/cceEwYdx.s:2179   .debug_str:000000000000015a .LASF22
     /tmp/cceEwYdx.s:2171   .debug_str:000000000000010a .LASF24
     /tmp/cceEwYdx.s:2283   .debug_str:00000000000004fa .LASF23
     /tmp/cceEwYdx.s:2251   .debug_str:00000000000003f4 .LASF25
     /tmp/cceEwYdx.s:2315   .debug_str:00000000000006b2 .LASF27
     /tmp/cceEwYdx.s:2153   .debug_str:000000000000004a .LASF29
     /tmp/cceEwYdx.s:2303   .debug_str:0000000000000650 .LASF30
     /tmp/cceEwYdx.s:2207   .debug_str:000000000000028d .LASF31
     /tmp/cceEwYdx.s:2281   .debug_str:00000000000004f0 .LASF32
     /tmp/cceEwYdx.s:2289   .debug_str:000000000000052a .LASF34
     /tmp/cceEwYdx.s:2265   .debug_str:0000000000000466 .LASF33
     /tmp/cceEwYdx.s:2213   .debug_str:00000000000002d2 .LASF35
     /tmp/cceEwYdx.s:2305   .debug_str:0000000000000659 .LASF54
     /tmp/cceEwYdx.s:2273   .debug_str:000000000000047f .LASF56
     /tmp/cceEwYdx.s:2175   .debug_str:000000000000013f .LASF36
     /tmp/cceEwYdx.s:2149   .debug_str:000000000000001c .LASF37
     /tmp/cceEwYdx.s:2201   .debug_str:0000000000000252 .LASF38
     /tmp/cceEwYdx.s:2261   .debug_str:000000000000044d .LASF40
     /tmp/cceEwYdx.s:2159   .debug_str:0000000000000088 .LASF41
     /tmp/cceEwYdx.s:2221   .debug_str:0000000000000316 .LASF81
     /tmp/cceEwYdx.s:2233   .debug_str:0000000000000368 .LASF82
     /tmp/cceEwYdx.s:2219   .debug_str:000000000000030b .LASF42
     /tmp/cceEwYdx.s:2301   .debug_str:000000000000064b .LASF44
     /tmp/cceEwYdx.s:2269   .debug_str:0000000000000474 .LASF45
     /tmp/cceEwYdx.s:2197   .debug_str:000000000000021e .LASF46
     /tmp/cceEwYdx.s:2311   .debug_str:0000000000000683 .LASF47
     /tmp/cceEwYdx.s:2211   .debug_str:00000000000002b9 .LASF48
     /tmp/cceEwYdx.s:2285   .debug_str:0000000000000506 .LASF52
     /tmp/cceEwYdx.s:2231   .debug_str:000000000000034e .LASF83
GAS LISTING /tmp/cceEwYdx.s 			page 12


     /tmp/cceEwYdx.s:2193   .debug_str:00000000000001fa .LASF49
     /tmp/cceEwYdx.s:2243   .debug_str:00000000000003c5 .LASF50
     /tmp/cceEwYdx.s:2157   .debug_str:0000000000000074 .LASF51
     /tmp/cceEwYdx.s:2177   .debug_str:0000000000000145 .LASF53
     /tmp/cceEwYdx.s:2271   .debug_str:0000000000000479 .LASF55
     /tmp/cceEwYdx.s:2287   .debug_str:0000000000000516 .LASF57
     /tmp/cceEwYdx.s:2205   .debug_str:0000000000000275 .LASF63
     /tmp/cceEwYdx.s:2245   .debug_str:00000000000003ca .LASF84
     /tmp/cceEwYdx.s:2235   .debug_str:0000000000000380 .LASF85
     /tmp/cceEwYdx.s:2209   .debug_str:00000000000002ad .LASF58
     /tmp/cceEwYdx.s:2313   .debug_str:0000000000000690 .LASF59
     /tmp/cceEwYdx.s:2187   .debug_str:00000000000001c4 .LASF60
     /tmp/cceEwYdx.s:2185   .debug_str:00000000000001a3 .LASF61
     /tmp/cceEwYdx.s:2297   .debug_str:0000000000000630 .LASF62
     /tmp/cceEwYdx.s:2195   .debug_str:00000000000001ff .LASF64
     /tmp/cceEwYdx.s:2217   .debug_str:0000000000000301 .LASF65
     /tmp/cceEwYdx.s:2147   .debug_str:0000000000000000 .LASF66
     /tmp/cceEwYdx.s:2189   .debug_str:00000000000001cf .LASF67
     /tmp/cceEwYdx.s:2203   .debug_str:0000000000000257 .LASF68
     /tmp/cceEwYdx.s:2229   .debug_str:0000000000000345 .LASF69
     /tmp/cceEwYdx.s:2167   .debug_str:00000000000000d4 .LASF70
     /tmp/cceEwYdx.s:2169   .debug_str:00000000000000ef .LASF86
     /tmp/cceEwYdx.s:2165   .debug_str:00000000000000aa .LASF71
     /tmp/cceEwYdx.s:225    .text:00000000000000f0 .LFB25
     /tmp/cceEwYdx.s:251    .text:0000000000000124 .LFE25
     /tmp/cceEwYdx.s:241    .text:0000000000000114 .LVL18
     /tmp/cceEwYdx.s:2277   .debug_str:00000000000004b4 .LASF72
     /tmp/cceEwYdx.s:9      .text:0000000000000000 .LFB24
     /tmp/cceEwYdx.s:53     .text:0000000000000040 .LFE24
     /tmp/cceEwYdx.s:2239   .debug_str:00000000000003a8 .LASF73
     /tmp/cceEwYdx.s:2225   .debug_str:0000000000000331 .LASF74
     /tmp/cceEwYdx.s:38     .text:000000000000002c .LBB15
     /tmp/cceEwYdx.s:49     .text:000000000000003c .LBE15
     /tmp/cceEwYdx.s:1987   .debug_loc:0000000000000000 .LLST0
     /tmp/cceEwYdx.s:2267   .debug_str:000000000000046f .LASF75
     /tmp/cceEwYdx.s:2191   .debug_str:00000000000001da .LASF76
     /tmp/cceEwYdx.s:116    .text._ZN5QueueI3PCBE4ElemnwEm:0000000000000000 .LFB19
     /tmp/cceEwYdx.s:141    .text._ZN5QueueI3PCBE4ElemnwEm:0000000000000028 .LFE19
     /tmp/cceEwYdx.s:1996   .debug_loc:000000000000002c .LLST3
     /tmp/cceEwYdx.s:130    .text._ZN5QueueI3PCBE4ElemnwEm:0000000000000018 .LVL8
     /tmp/cceEwYdx.s:2199   .debug_str:000000000000023e .LASF77
     /tmp/cceEwYdx.s:148    .text:0000000000000084 .LFB13
     /tmp/cceEwYdx.s:220    .text:00000000000000f0 .LFE13
     /tmp/cceEwYdx.s:2010   .debug_loc:0000000000000065 .LLST4
     /tmp/cceEwYdx.s:165    .text:000000000000009c .LBB22
     /tmp/cceEwYdx.s:2032   .debug_loc:00000000000000c4 .LLST5
     /tmp/cceEwYdx.s:2047   .debug_loc:000000000000010d .LLST6
     /tmp/cceEwYdx.s:172    .text:00000000000000a8 .LBB24
     /tmp/cceEwYdx.s:179    .text:00000000000000b0 .LBE24
     /tmp/cceEwYdx.s:2062   .debug_loc:0000000000000155 .LLST7
     /tmp/cceEwYdx.s:2070   .debug_loc:0000000000000179 .LLST8
     /tmp/cceEwYdx.s:2077   .debug_loc:000000000000019c .LLST9
     /tmp/cceEwYdx.s:171    .text:00000000000000a8 .LVL12
     /tmp/cceEwYdx.s:59     .text:0000000000000040 .LFB12
     /tmp/cceEwYdx.s:109    .text:0000000000000084 .LFE12
     /tmp/cceEwYdx.s:70     .text:000000000000004c .LBB18
     /tmp/cceEwYdx.s:2084   .debug_loc:00000000000001bf .LLST1
GAS LISTING /tmp/cceEwYdx.s 			page 13


     /tmp/cceEwYdx.s:2099   .debug_loc:0000000000000207 .LLST2
     /tmp/cceEwYdx.s:37     .text:000000000000002c .LVL1
     /tmp/cceEwYdx.s:46     .text:000000000000003c .LVL2
     /tmp/cceEwYdx.s:119    .text._ZN5QueueI3PCBE4ElemnwEm:0000000000000000 .LVL7
     /tmp/cceEwYdx.s:151    .text:0000000000000084 .LVL9
     /tmp/cceEwYdx.s:169    .text:00000000000000a0 .LVL11
     /tmp/cceEwYdx.s:201    .text:00000000000000d4 .LVL15
     /tmp/cceEwYdx.s:205    .text:00000000000000dc .LVL16
     /tmp/cceEwYdx.s:164    .text:000000000000009c .LVL10
     /tmp/cceEwYdx.s:188    .text:00000000000000c8 .LVL14
     /tmp/cceEwYdx.s:214    .text:00000000000000ec .LVL17
     /tmp/cceEwYdx.s:177    .text:00000000000000b0 .LVL13
     /tmp/cceEwYdx.s:69     .text:000000000000004c .LVL3
     /tmp/cceEwYdx.s:86     .text:000000000000006c .LVL5
     /tmp/cceEwYdx.s:98     .text:0000000000000078 .LVL6
     /tmp/cceEwYdx.s:76     .text:0000000000000058 .LVL4
     /tmp/cceEwYdx.s:270    .debug_info:0000000000000000 .Ldebug_info0
     /tmp/cceEwYdx.s:5      .text:0000000000000000 .Ltext0
     /tmp/cceEwYdx.s:265    .text:0000000000000124 .Letext0
     /tmp/cceEwYdx.s:89     .text:000000000000006c .LBE18
     /tmp/cceEwYdx.s:101    .text:0000000000000078 .LBB21
     /tmp/cceEwYdx.s:107    .text:0000000000000084 .LBE21
     /tmp/cceEwYdx.s:191    .text:00000000000000c8 .LBE22
     /tmp/cceEwYdx.s:208    .text:00000000000000dc .LBB27
     /tmp/cceEwYdx.s:216    .text:00000000000000ec .LBE27

UNDEFINED SYMBOLS
_ZN15MemoryAllocator7kmallocEm
