GAS LISTING /tmp/ccWUAG0P.s 			page 1


   1              		.file	"syscall_c.cpp"
   2              		.option pic
   3              		.option norelax
   4              		.text
   5              	.Ltext0:
   6              		.align	2
   7              		.globl	_Z9mem_allocm
   9              	_Z9mem_allocm:
  10              	.LFB0:
  11              		.file 1 "src/syscall_c.cpp"
   1:src/syscall_c.cpp **** //
   2:src/syscall_c.cpp **** // Created by os on 5/12/23.
   3:src/syscall_c.cpp **** //
   4:src/syscall_c.cpp **** 
   5:src/syscall_c.cpp **** #include "../h/syscall_c.hpp"
   6:src/syscall_c.cpp **** #include "../h/MemoryAllocator.hpp"
   7:src/syscall_c.cpp **** #include "../test/printing.hpp"
   8:src/syscall_c.cpp **** 
   9:src/syscall_c.cpp **** void* mem_alloc(size_t size){
  12              		.loc 1 9 29
  13              		.cfi_startproc
  14              	.LVL0:
  15 0000 130101FF 		addi	sp,sp,-16
  16              		.cfi_def_cfa_offset 16
  17 0004 23348100 		sd	s0,8(sp)
  18              		.cfi_offset 8, -8
  19 0008 13040101 		addi	s0,sp,16
  20              		.cfi_def_cfa 8, 0
  10:src/syscall_c.cpp ****     //save
  11:src/syscall_c.cpp ****     __asm__ volatile("mv a1, %0" :: "r"((uint64)(size + MEM_BLOCK_SIZE - 1)/ MEM_BLOCK_SIZE));
  21              		.loc 1 11 5
  22              		.loc 1 11 72 is_stmt 0
  23 000c 1305F503 		addi	a0,a0,63
  24              	.LVL1:
  25              		.loc 1 11 76
  26 0010 13556500 		srli	a0,a0,6
  27              	.LVL2:
  28              		.loc 1 11 94
  29              	#APP
  30              	# 11 "src/syscall_c.cpp" 1
  12              	    __asm__ volatile("li a0,0x01");
  31              		mv a1, a0
  32              	# 0 "" 2
  33              		.loc 1 12 5 is_stmt 1
  34              		.loc 1 12 35 is_stmt 0
  35              	# 12 "src/syscall_c.cpp" 1
  13              	    //call
  14:src/syscall_c.cpp ****     __asm__ volatile("ecall");
  36              		li a0,0x01
  37              	# 0 "" 2
  38              		.loc 1 14 5 is_stmt 1
  39              		.loc 1 14 30 is_stmt 0
  40              	# 14 "src/syscall_c.cpp" 1
  15              	    //get result
  16:src/syscall_c.cpp ****     uint64 adr;
  41              		ecall
  42              	# 0 "" 2
GAS LISTING /tmp/ccWUAG0P.s 			page 2


  43              		.loc 1 16 5 is_stmt 1
  17:src/syscall_c.cpp ****     __asm__ volatile("mv %0, a0" : "=r"(adr));
  44              		.loc 1 17 5
  45              		.loc 1 17 46 is_stmt 0
  46              	# 17 "src/syscall_c.cpp" 1
  18              	    return (void*) adr;
  47              		mv a0, a0
  48              	# 0 "" 2
  49              	.LVL3:
  50              		.loc 1 18 5 is_stmt 1
  19:src/syscall_c.cpp **** }
  51              		.loc 1 19 1 is_stmt 0
  52              	#NO_APP
  53 0024 03348100 		ld	s0,8(sp)
  54              		.cfi_restore 8
  55              		.cfi_def_cfa 2, 16
  56 0028 13010101 		addi	sp,sp,16
  57              		.cfi_def_cfa_offset 0
  58 002c 67800000 		jr	ra
  59              		.cfi_endproc
  60              	.LFE0:
  62              		.align	2
  63              		.globl	_Z8mem_freePv
  65              	_Z8mem_freePv:
  66              	.LFB1:
  20:src/syscall_c.cpp **** 
  21:src/syscall_c.cpp **** int mem_free(void* ptr){
  67              		.loc 1 21 24 is_stmt 1
  68              		.cfi_startproc
  69              	.LVL4:
  70 0030 130101FF 		addi	sp,sp,-16
  71              		.cfi_def_cfa_offset 16
  72 0034 23348100 		sd	s0,8(sp)
  73              		.cfi_offset 8, -8
  74 0038 13040101 		addi	s0,sp,16
  75              		.cfi_def_cfa 8, 0
  22:src/syscall_c.cpp ****     //save
  23:src/syscall_c.cpp ****     __asm__ volatile("mv a1, %0" :: "r"((uint64)ptr));
  76              		.loc 1 23 5
  77              		.loc 1 23 54 is_stmt 0
  78              	#APP
  79              	# 23 "src/syscall_c.cpp" 1
  24              	    __asm__ volatile("li a0, 0x02");
  80              		mv a1, a0
  81              	# 0 "" 2
  82              		.loc 1 24 5 is_stmt 1
  83              		.loc 1 24 36 is_stmt 0
  84              	# 24 "src/syscall_c.cpp" 1
  25              	    //call
  26:src/syscall_c.cpp ****     __asm__ volatile("ecall");
  85              		li a0, 0x02
  86              	# 0 "" 2
  87              		.loc 1 26 5 is_stmt 1
  88              		.loc 1 26 30 is_stmt 0
  89              	# 26 "src/syscall_c.cpp" 1
  27              	    //get result
  28:src/syscall_c.cpp ****     uint64 res;
GAS LISTING /tmp/ccWUAG0P.s 			page 3


  90              		ecall
  91              	# 0 "" 2
  92              		.loc 1 28 5 is_stmt 1
  29:src/syscall_c.cpp ****     __asm__ volatile("mv %0, a0" : "=r"(res));
  93              		.loc 1 29 5
  94              		.loc 1 29 46 is_stmt 0
  95              	# 29 "src/syscall_c.cpp" 1
  30              	    return res;
  96              		mv a0, a0
  97              	# 0 "" 2
  98              	.LVL5:
  99              		.loc 1 30 5 is_stmt 1
  31:src/syscall_c.cpp **** }
 100              		.loc 1 31 1 is_stmt 0
 101              	#NO_APP
 102 004c 1B050500 		sext.w	a0,a0
 103              	.LVL6:
 104 0050 03348100 		ld	s0,8(sp)
 105              		.cfi_restore 8
 106              		.cfi_def_cfa 2, 16
 107 0054 13010101 		addi	sp,sp,16
 108              		.cfi_def_cfa_offset 0
 109 0058 67800000 		jr	ra
 110              		.cfi_endproc
 111              	.LFE1:
 113              		.align	2
 114              		.globl	_Z13thread_createPP7_threadPFvPvES2_
 116              	_Z13thread_createPP7_threadPFvPvES2_:
 117              	.LFB2:
  32:src/syscall_c.cpp **** 
  33:src/syscall_c.cpp **** int thread_create(thread_t* handle, void(*start_routine)(void*), void* arg){
 118              		.loc 1 33 76 is_stmt 1
 119              		.cfi_startproc
 120              	.LVL7:
 121 005c 130101FD 		addi	sp,sp,-48
 122              		.cfi_def_cfa_offset 48
 123 0060 23341102 		sd	ra,40(sp)
 124 0064 23308102 		sd	s0,32(sp)
 125 0068 233C9100 		sd	s1,24(sp)
 126 006c 23382101 		sd	s2,16(sp)
 127 0070 23343101 		sd	s3,8(sp)
 128              		.cfi_offset 1, -8
 129              		.cfi_offset 8, -16
 130              		.cfi_offset 9, -24
 131              		.cfi_offset 18, -32
 132              		.cfi_offset 19, -40
 133 0074 13040103 		addi	s0,sp,48
 134              		.cfi_def_cfa 8, 0
 135 0078 93040500 		mv	s1,a0
 136 007c 13890500 		mv	s2,a1
 137 0080 93090600 		mv	s3,a2
  34:src/syscall_c.cpp ****     void* stck = mem_alloc(DEFAULT_STACK_SIZE);
 138              		.loc 1 34 5
 139              		.loc 1 34 27 is_stmt 0
 140 0084 37150000 		li	a0,4096
 141              	.LVL8:
 142 0088 97000000 		call	_Z9mem_allocm
GAS LISTING /tmp/ccWUAG0P.s 			page 4


 142      E7800000 
 143              	.LVL9:
  35:src/syscall_c.cpp ****     if(!stck)
 144              		.loc 1 35 5 is_stmt 1
 145 0090 63000504 		beqz	a0,.L7
  36:src/syscall_c.cpp ****         return -1;
  37:src/syscall_c.cpp ****     __asm__ volatile("mv a4, %0" :: "r" ((uint64)stck));
 146              		.loc 1 37 5
 147              		.loc 1 37 56 is_stmt 0
 148              	#APP
 149              	# 37 "src/syscall_c.cpp" 1
  38              	    __asm__ volatile("mv a3, %0" :: "r" ((uint64)arg));
 150              		mv a4, a0
 151              	# 0 "" 2
 152              		.loc 1 38 5 is_stmt 1
 153              		.loc 1 38 55 is_stmt 0
 154              	# 38 "src/syscall_c.cpp" 1
  39              	    __asm__ volatile("mv a2, %0" :: "r" ((uint64)start_routine));
 155              		mv a3, s3
 156              	# 0 "" 2
 157              		.loc 1 39 5 is_stmt 1
 158              		.loc 1 39 65 is_stmt 0
 159              	# 39 "src/syscall_c.cpp" 1
  40              	    __asm__ volatile("mv a1, %0" :: "r" ((uint64)handle));
 160              		mv a2, s2
 161              	# 0 "" 2
 162              		.loc 1 40 5 is_stmt 1
 163              		.loc 1 40 58 is_stmt 0
 164              	# 40 "src/syscall_c.cpp" 1
  41              	    __asm__ volatile("li a0, 0x11");
 165              		mv a1, s1
 166              	# 0 "" 2
 167              		.loc 1 41 5 is_stmt 1
 168              		.loc 1 41 36 is_stmt 0
 169              	# 41 "src/syscall_c.cpp" 1
  42              	
  43:src/syscall_c.cpp ****     __asm__ volatile("ecall");
 170              		li a0, 0x11
 171              	# 0 "" 2
 172              		.loc 1 43 5 is_stmt 1
 173              		.loc 1 43 30 is_stmt 0
 174              	# 43 "src/syscall_c.cpp" 1
  44              	
  45:src/syscall_c.cpp ****     uint64 res;
 175              		ecall
 176              	# 0 "" 2
 177              		.loc 1 45 5 is_stmt 1
  46:src/syscall_c.cpp ****     __asm__ volatile("mv a0, %0" : "=r"(res));
 178              		.loc 1 46 5
 179              		.loc 1 46 46 is_stmt 0
 180              	# 46 "src/syscall_c.cpp" 1
  47              	    return res;
 181              		mv a0, a0
 182              	# 0 "" 2
 183              	.LVL10:
 184              		.loc 1 47 5 is_stmt 1
 185              		.loc 1 47 12 is_stmt 0
GAS LISTING /tmp/ccWUAG0P.s 			page 5


 186              	#NO_APP
 187 00b0 1B050500 		sext.w	a0,a0
 188              	.LVL11:
 189              	.L6:
  48:src/syscall_c.cpp **** }
 190              		.loc 1 48 1
 191 00b4 83308102 		ld	ra,40(sp)
 192              		.cfi_remember_state
 193              		.cfi_restore 1
 194 00b8 03340102 		ld	s0,32(sp)
 195              		.cfi_restore 8
 196              		.cfi_def_cfa 2, 48
 197 00bc 83348101 		ld	s1,24(sp)
 198              		.cfi_restore 9
 199              	.LVL12:
 200 00c0 03390101 		ld	s2,16(sp)
 201              		.cfi_restore 18
 202              	.LVL13:
 203 00c4 83398100 		ld	s3,8(sp)
 204              		.cfi_restore 19
 205              	.LVL14:
 206 00c8 13010103 		addi	sp,sp,48
 207              		.cfi_def_cfa_offset 0
 208 00cc 67800000 		jr	ra
 209              	.LVL15:
 210              	.L7:
 211              		.cfi_restore_state
  36:src/syscall_c.cpp ****     __asm__ volatile("mv a4, %0" :: "r" ((uint64)stck));
 212              		.loc 1 36 17
 213 00d0 1305F0FF 		li	a0,-1
 214              	.LVL16:
 215 00d4 6FF01FFE 		j	.L6
 216              		.cfi_endproc
 217              	.LFE2:
 219              		.align	2
 220              		.globl	_Z11thread_exitv
 222              	_Z11thread_exitv:
 223              	.LFB3:
  49:src/syscall_c.cpp **** 
  50:src/syscall_c.cpp **** int thread_exit(){
 224              		.loc 1 50 18 is_stmt 1
 225              		.cfi_startproc
 226 00d8 130101FF 		addi	sp,sp,-16
 227              		.cfi_def_cfa_offset 16
 228 00dc 23348100 		sd	s0,8(sp)
 229              		.cfi_offset 8, -8
 230 00e0 13040101 		addi	s0,sp,16
 231              		.cfi_def_cfa 8, 0
  51:src/syscall_c.cpp ****     //save
  52:src/syscall_c.cpp ****     __asm__ volatile("li a0, 0x12");
 232              		.loc 1 52 5
 233              		.loc 1 52 36 is_stmt 0
 234              	#APP
 235              	# 52 "src/syscall_c.cpp" 1
  53              	    //call
  54:src/syscall_c.cpp ****     __asm__ volatile("ecall");
 236              		li a0, 0x12
GAS LISTING /tmp/ccWUAG0P.s 			page 6


 237              	# 0 "" 2
 238              		.loc 1 54 5 is_stmt 1
 239              		.loc 1 54 30 is_stmt 0
 240              	# 54 "src/syscall_c.cpp" 1
  55              	    //get result
  56:src/syscall_c.cpp ****     uint64 res;
 241              		ecall
 242              	# 0 "" 2
 243              		.loc 1 56 5 is_stmt 1
  57:src/syscall_c.cpp ****     __asm__ volatile("mv %0, a0" : "=r"(res));
 244              		.loc 1 57 5
 245              		.loc 1 57 46 is_stmt 0
 246              	# 57 "src/syscall_c.cpp" 1
  58              	    return res;
 247              		mv a0, a0
 248              	# 0 "" 2
 249              	.LVL17:
 250              		.loc 1 58 5 is_stmt 1
  59:src/syscall_c.cpp **** }
 251              		.loc 1 59 1 is_stmt 0
 252              	#NO_APP
 253 00f0 1B050500 		sext.w	a0,a0
 254              	.LVL18:
 255 00f4 03348100 		ld	s0,8(sp)
 256              		.cfi_restore 8
 257              		.cfi_def_cfa 2, 16
 258 00f8 13010101 		addi	sp,sp,16
 259              		.cfi_def_cfa_offset 0
 260 00fc 67800000 		jr	ra
 261              		.cfi_endproc
 262              	.LFE3:
 264              		.align	2
 265              		.globl	_Z15thread_dispatchv
 267              	_Z15thread_dispatchv:
 268              	.LFB4:
  60:src/syscall_c.cpp **** 
  61:src/syscall_c.cpp **** void thread_dispatch(){
 269              		.loc 1 61 23 is_stmt 1
 270              		.cfi_startproc
 271 0100 130101FF 		addi	sp,sp,-16
 272              		.cfi_def_cfa_offset 16
 273 0104 23348100 		sd	s0,8(sp)
 274              		.cfi_offset 8, -8
 275 0108 13040101 		addi	s0,sp,16
 276              		.cfi_def_cfa 8, 0
  62:src/syscall_c.cpp ****     __asm__ volatile("li a0, 0x13");
 277              		.loc 1 62 5
 278              		.loc 1 62 36 is_stmt 0
 279              	#APP
 280              	# 62 "src/syscall_c.cpp" 1
  63              	    __asm__ volatile("ecall");
 281              		li a0, 0x13
 282              	# 0 "" 2
 283              		.loc 1 63 5 is_stmt 1
 284              		.loc 1 63 30 is_stmt 0
 285              	# 63 "src/syscall_c.cpp" 1
  64              	}
GAS LISTING /tmp/ccWUAG0P.s 			page 7


 286              		ecall
 287              	# 0 "" 2
 288              		.loc 1 64 1
 289              	#NO_APP
 290 0114 03348100 		ld	s0,8(sp)
 291              		.cfi_restore 8
 292              		.cfi_def_cfa 2, 16
 293 0118 13010101 		addi	sp,sp,16
 294              		.cfi_def_cfa_offset 0
 295 011c 67800000 		jr	ra
 296              		.cfi_endproc
 297              	.LFE4:
 299              		.align	2
 300              		.globl	_Z11thread_joinP7_thread
 302              	_Z11thread_joinP7_thread:
 303              	.LFB5:
  65:src/syscall_c.cpp **** 
  66:src/syscall_c.cpp **** void thread_join(thread_t handle) {
 304              		.loc 1 66 35 is_stmt 1
 305              		.cfi_startproc
 306              	.LVL19:
 307 0120 130101FF 		addi	sp,sp,-16
 308              		.cfi_def_cfa_offset 16
 309 0124 23348100 		sd	s0,8(sp)
 310              		.cfi_offset 8, -8
 311 0128 13040101 		addi	s0,sp,16
 312              		.cfi_def_cfa 8, 0
  67:src/syscall_c.cpp ****     //save
  68:src/syscall_c.cpp ****     __asm__ volatile("mv a1, %0" :: "r" ((uint64)handle));
 313              		.loc 1 68 5
 314              		.loc 1 68 58 is_stmt 0
 315              	#APP
 316              	# 68 "src/syscall_c.cpp" 1
  69              	    __asm__ volatile("li a0, 0x14");
 317              		mv a1, a0
 318              	# 0 "" 2
 319              		.loc 1 69 5 is_stmt 1
 320              		.loc 1 69 36 is_stmt 0
 321              	# 69 "src/syscall_c.cpp" 1
  70              	    //call
  71:src/syscall_c.cpp ****     __asm__ volatile("ecall");
 322              		li a0, 0x14
 323              	# 0 "" 2
 324              		.loc 1 71 5 is_stmt 1
 325              		.loc 1 71 30 is_stmt 0
 326              	# 71 "src/syscall_c.cpp" 1
  72              	}
 327              		ecall
 328              	# 0 "" 2
 329              		.loc 1 72 1
 330              	#NO_APP
 331 0138 03348100 		ld	s0,8(sp)
 332              		.cfi_restore 8
 333              		.cfi_def_cfa 2, 16
 334 013c 13010101 		addi	sp,sp,16
 335              		.cfi_def_cfa_offset 0
 336 0140 67800000 		jr	ra
GAS LISTING /tmp/ccWUAG0P.s 			page 8


 337              		.cfi_endproc
 338              	.LFE5:
 340              		.align	2
 341              		.globl	_Z8sem_openPP4_semj
 343              	_Z8sem_openPP4_semj:
 344              	.LFB6:
  73:src/syscall_c.cpp **** 
  74:src/syscall_c.cpp **** int sem_open(sem_t* handle, unsigned init){
 345              		.loc 1 74 43 is_stmt 1
 346              		.cfi_startproc
 347              	.LVL20:
 348 0144 130101FF 		addi	sp,sp,-16
 349              		.cfi_def_cfa_offset 16
 350 0148 23348100 		sd	s0,8(sp)
 351              		.cfi_offset 8, -8
 352 014c 13040101 		addi	s0,sp,16
 353              		.cfi_def_cfa 8, 0
  75:src/syscall_c.cpp ****     //save
  76:src/syscall_c.cpp ****     __asm__ volatile("mv a2, %0" :: "r"((uint64)init));
 354              		.loc 1 76 5
 355              		.loc 1 76 41 is_stmt 0
 356 0150 93950502 		slli	a1,a1,32
 357              	.LVL21:
 358 0154 93D50502 		srli	a1,a1,32
 359              		.loc 1 76 55
 360              	#APP
 361              	# 76 "src/syscall_c.cpp" 1
  77              	    __asm__ volatile("mv a1, %0" :: "r"((uint64)handle));
 362              		mv a2, a1
 363              	# 0 "" 2
 364              		.loc 1 77 5 is_stmt 1
 365              		.loc 1 77 57 is_stmt 0
 366              	# 77 "src/syscall_c.cpp" 1
  78              	    __asm__ volatile("li a0, 0x21");
 367              		mv a1, a0
 368              	# 0 "" 2
 369              		.loc 1 78 5 is_stmt 1
 370              		.loc 1 78 36 is_stmt 0
 371              	# 78 "src/syscall_c.cpp" 1
  79              	    //call
  80:src/syscall_c.cpp ****     __asm__ volatile("ecall");
 372              		li a0, 0x21
 373              	# 0 "" 2
 374              		.loc 1 80 5 is_stmt 1
 375              		.loc 1 80 30 is_stmt 0
 376              	# 80 "src/syscall_c.cpp" 1
  81              	    //get result
  82:src/syscall_c.cpp ****     uint64 res;
 377              		ecall
 378              	# 0 "" 2
 379              		.loc 1 82 5 is_stmt 1
  83:src/syscall_c.cpp ****     __asm__ volatile("mv %0, a0" : "=r"(res));
 380              		.loc 1 83 5
 381              		.loc 1 83 46 is_stmt 0
 382              	# 83 "src/syscall_c.cpp" 1
  84              	    return res;
 383              		mv a0, a0
GAS LISTING /tmp/ccWUAG0P.s 			page 9


 384              	# 0 "" 2
 385              	.LVL22:
 386              		.loc 1 84 5 is_stmt 1
  85:src/syscall_c.cpp **** }
 387              		.loc 1 85 1 is_stmt 0
 388              	#NO_APP
 389 016c 1B050500 		sext.w	a0,a0
 390              	.LVL23:
 391 0170 03348100 		ld	s0,8(sp)
 392              		.cfi_restore 8
 393              		.cfi_def_cfa 2, 16
 394 0174 13010101 		addi	sp,sp,16
 395              		.cfi_def_cfa_offset 0
 396 0178 67800000 		jr	ra
 397              		.cfi_endproc
 398              	.LFE6:
 400              		.align	2
 401              		.globl	_Z9sem_closeP4_sem
 403              	_Z9sem_closeP4_sem:
 404              	.LFB7:
  86:src/syscall_c.cpp **** 
  87:src/syscall_c.cpp **** int sem_close(sem_t handle){
 405              		.loc 1 87 28 is_stmt 1
 406              		.cfi_startproc
 407              	.LVL24:
 408 017c 130101FF 		addi	sp,sp,-16
 409              		.cfi_def_cfa_offset 16
 410 0180 23348100 		sd	s0,8(sp)
 411              		.cfi_offset 8, -8
 412 0184 13040101 		addi	s0,sp,16
 413              		.cfi_def_cfa 8, 0
  88:src/syscall_c.cpp ****     //save
  89:src/syscall_c.cpp ****     __asm__ volatile("mv a1, %0" :: "r"((uint64)handle));
 414              		.loc 1 89 5
 415              		.loc 1 89 57 is_stmt 0
 416              	#APP
 417              	# 89 "src/syscall_c.cpp" 1
  90              	    __asm__ volatile("li a0, 0x21");
 418              		mv a1, a0
 419              	# 0 "" 2
 420              		.loc 1 90 5 is_stmt 1
 421              		.loc 1 90 36 is_stmt 0
 422              	# 90 "src/syscall_c.cpp" 1
  91              	    //call
  92:src/syscall_c.cpp ****     __asm__ volatile("ecall");
 423              		li a0, 0x21
 424              	# 0 "" 2
 425              		.loc 1 92 5 is_stmt 1
 426              		.loc 1 92 30 is_stmt 0
 427              	# 92 "src/syscall_c.cpp" 1
  93              	    //get result
  94:src/syscall_c.cpp ****     uint64 res;
 428              		ecall
 429              	# 0 "" 2
 430              		.loc 1 94 5 is_stmt 1
  95:src/syscall_c.cpp ****     __asm__ volatile("mv %0, a0" : "=r"(res));
 431              		.loc 1 95 5
GAS LISTING /tmp/ccWUAG0P.s 			page 10


 432              		.loc 1 95 46 is_stmt 0
 433              	# 95 "src/syscall_c.cpp" 1
  96              	    return res;
 434              		mv a0, a0
 435              	# 0 "" 2
 436              	.LVL25:
 437              		.loc 1 96 5 is_stmt 1
  97:src/syscall_c.cpp **** }
 438              		.loc 1 97 1 is_stmt 0
 439              	#NO_APP
 440 0198 1B050500 		sext.w	a0,a0
 441              	.LVL26:
 442 019c 03348100 		ld	s0,8(sp)
 443              		.cfi_restore 8
 444              		.cfi_def_cfa 2, 16
 445 01a0 13010101 		addi	sp,sp,16
 446              		.cfi_def_cfa_offset 0
 447 01a4 67800000 		jr	ra
 448              		.cfi_endproc
 449              	.LFE7:
 451              		.align	2
 452              		.globl	_Z8sem_waitP4_sem
 454              	_Z8sem_waitP4_sem:
 455              	.LFB8:
  98:src/syscall_c.cpp **** 
  99:src/syscall_c.cpp **** int sem_wait(sem_t id){
 456              		.loc 1 99 23 is_stmt 1
 457              		.cfi_startproc
 458              	.LVL27:
 459 01a8 130101FF 		addi	sp,sp,-16
 460              		.cfi_def_cfa_offset 16
 461 01ac 23348100 		sd	s0,8(sp)
 462              		.cfi_offset 8, -8
 463 01b0 13040101 		addi	s0,sp,16
 464              		.cfi_def_cfa 8, 0
 100:src/syscall_c.cpp ****     //save
 101:src/syscall_c.cpp ****     __asm__ volatile("mv a1, %0" :: "r"((uint64)id));
 465              		.loc 1 101 5
 466              		.loc 1 101 53 is_stmt 0
 467              	#APP
 468              	# 101 "src/syscall_c.cpp" 1
 102              	    __asm__ volatile("li a0, 0x23");
 469              		mv a1, a0
 470              	# 0 "" 2
 471              		.loc 1 102 5 is_stmt 1
 472              		.loc 1 102 36 is_stmt 0
 473              	# 102 "src/syscall_c.cpp" 1
 103              	    //call
 104:src/syscall_c.cpp ****     __asm__ volatile("ecall");
 474              		li a0, 0x23
 475              	# 0 "" 2
 476              		.loc 1 104 5 is_stmt 1
 477              		.loc 1 104 30 is_stmt 0
 478              	# 104 "src/syscall_c.cpp" 1
 105              	    //get result
 106:src/syscall_c.cpp ****     uint64 res;
 479              		ecall
GAS LISTING /tmp/ccWUAG0P.s 			page 11


 480              	# 0 "" 2
 481              		.loc 1 106 5 is_stmt 1
 107:src/syscall_c.cpp ****     __asm__ volatile("mv %0, a0" : "=r"(res));
 482              		.loc 1 107 5
 483              		.loc 1 107 46 is_stmt 0
 484              	# 107 "src/syscall_c.cpp" 1
 108              	    return res;
 485              		mv a0, a0
 486              	# 0 "" 2
 487              	.LVL28:
 488              		.loc 1 108 5 is_stmt 1
 109:src/syscall_c.cpp **** }
 489              		.loc 1 109 1 is_stmt 0
 490              	#NO_APP
 491 01c4 1B050500 		sext.w	a0,a0
 492              	.LVL29:
 493 01c8 03348100 		ld	s0,8(sp)
 494              		.cfi_restore 8
 495              		.cfi_def_cfa 2, 16
 496 01cc 13010101 		addi	sp,sp,16
 497              		.cfi_def_cfa_offset 0
 498 01d0 67800000 		jr	ra
 499              		.cfi_endproc
 500              	.LFE8:
 502              		.align	2
 503              		.globl	_Z10sem_signalP4_sem
 505              	_Z10sem_signalP4_sem:
 506              	.LFB9:
 110:src/syscall_c.cpp **** 
 111:src/syscall_c.cpp **** int sem_signal(sem_t id){
 507              		.loc 1 111 25 is_stmt 1
 508              		.cfi_startproc
 509              	.LVL30:
 510 01d4 130101FF 		addi	sp,sp,-16
 511              		.cfi_def_cfa_offset 16
 512 01d8 23348100 		sd	s0,8(sp)
 513              		.cfi_offset 8, -8
 514 01dc 13040101 		addi	s0,sp,16
 515              		.cfi_def_cfa 8, 0
 112:src/syscall_c.cpp ****     //save
 113:src/syscall_c.cpp ****     __asm__ volatile("mv a1, %0" :: "r"((uint64)id));
 516              		.loc 1 113 5
 517              		.loc 1 113 53 is_stmt 0
 518              	#APP
 519              	# 113 "src/syscall_c.cpp" 1
 114              	    __asm__ volatile("li a0, 0x24");
 520              		mv a1, a0
 521              	# 0 "" 2
 522              		.loc 1 114 5 is_stmt 1
 523              		.loc 1 114 36 is_stmt 0
 524              	# 114 "src/syscall_c.cpp" 1
 115              	    //call
 116:src/syscall_c.cpp ****     __asm__ volatile("ecall");
 525              		li a0, 0x24
 526              	# 0 "" 2
 527              		.loc 1 116 5 is_stmt 1
 528              		.loc 1 116 30 is_stmt 0
GAS LISTING /tmp/ccWUAG0P.s 			page 12


 529              	# 116 "src/syscall_c.cpp" 1
 117              	    //get result
 118:src/syscall_c.cpp ****     uint64 res;
 530              		ecall
 531              	# 0 "" 2
 532              		.loc 1 118 5 is_stmt 1
 119:src/syscall_c.cpp ****     __asm__ volatile("mv %0, a0" : "=r"(res));
 533              		.loc 1 119 5
 534              		.loc 1 119 46 is_stmt 0
 535              	# 119 "src/syscall_c.cpp" 1
 120              	    return res;
 536              		mv a0, a0
 537              	# 0 "" 2
 538              	.LVL31:
 539              		.loc 1 120 5 is_stmt 1
 121:src/syscall_c.cpp **** }
 540              		.loc 1 121 1 is_stmt 0
 541              	#NO_APP
 542 01f0 1B050500 		sext.w	a0,a0
 543              	.LVL32:
 544 01f4 03348100 		ld	s0,8(sp)
 545              		.cfi_restore 8
 546              		.cfi_def_cfa 2, 16
 547 01f8 13010101 		addi	sp,sp,16
 548              		.cfi_def_cfa_offset 0
 549 01fc 67800000 		jr	ra
 550              		.cfi_endproc
 551              	.LFE9:
 553              		.align	2
 554              		.globl	_Z10time_sleepm
 556              	_Z10time_sleepm:
 557              	.LFB10:
 122:src/syscall_c.cpp **** 
 123:src/syscall_c.cpp **** int time_sleep(time_t time){
 558              		.loc 1 123 28 is_stmt 1
 559              		.cfi_startproc
 560              	.LVL33:
 561 0200 130101FF 		addi	sp,sp,-16
 562              		.cfi_def_cfa_offset 16
 563 0204 23348100 		sd	s0,8(sp)
 564              		.cfi_offset 8, -8
 565 0208 13040101 		addi	s0,sp,16
 566              		.cfi_def_cfa 8, 0
 124:src/syscall_c.cpp ****     //save
 125:src/syscall_c.cpp ****     __asm__ volatile("mv a1, %0" :: "r"((uint64)time));
 567              		.loc 1 125 5
 568              		.loc 1 125 55 is_stmt 0
 569              	#APP
 570              	# 125 "src/syscall_c.cpp" 1
 126              	    __asm__ volatile("li a0, 0x31");
 571              		mv a1, a0
 572              	# 0 "" 2
 573              		.loc 1 126 5 is_stmt 1
 574              		.loc 1 126 36 is_stmt 0
 575              	# 126 "src/syscall_c.cpp" 1
 127              	    //call
 128:src/syscall_c.cpp ****     __asm__ volatile("ecall");
GAS LISTING /tmp/ccWUAG0P.s 			page 13


 576              		li a0, 0x31
 577              	# 0 "" 2
 578              		.loc 1 128 5 is_stmt 1
 579              		.loc 1 128 30 is_stmt 0
 580              	# 128 "src/syscall_c.cpp" 1
 129              	    //get result
 130:src/syscall_c.cpp ****     uint64 res;
 581              		ecall
 582              	# 0 "" 2
 583              		.loc 1 130 5 is_stmt 1
 131:src/syscall_c.cpp ****     __asm__ volatile("mv %0, a0" : "=r"(res));
 584              		.loc 1 131 5
 585              		.loc 1 131 46 is_stmt 0
 586              	# 131 "src/syscall_c.cpp" 1
 132              	    return res;
 587              		mv a0, a0
 588              	# 0 "" 2
 589              	.LVL34:
 590              		.loc 1 132 5 is_stmt 1
 133:src/syscall_c.cpp **** }
 591              		.loc 1 133 1 is_stmt 0
 592              	#NO_APP
 593 021c 1B050500 		sext.w	a0,a0
 594              	.LVL35:
 595 0220 03348100 		ld	s0,8(sp)
 596              		.cfi_restore 8
 597              		.cfi_def_cfa 2, 16
 598 0224 13010101 		addi	sp,sp,16
 599              		.cfi_def_cfa_offset 0
 600 0228 67800000 		jr	ra
 601              		.cfi_endproc
 602              	.LFE10:
 604              		.align	2
 605              		.globl	_Z4putcc
 607              	_Z4putcc:
 608              	.LFB12:
 134:src/syscall_c.cpp **** 
 135:src/syscall_c.cpp **** char getc(){
 136:src/syscall_c.cpp ****     __asm__ volatile("li a0, 0x41");
 137:src/syscall_c.cpp ****     //call
 138:src/syscall_c.cpp ****     __asm__ volatile("ecall");
 139:src/syscall_c.cpp ****     //get result
 140:src/syscall_c.cpp ****     uint64 res;
 141:src/syscall_c.cpp ****     __asm__ volatile("mv %0, a0" : "=r"(res));
 142:src/syscall_c.cpp ****     putc(res);
 143:src/syscall_c.cpp ****     return (char)res;
 144:src/syscall_c.cpp **** }
 145:src/syscall_c.cpp **** 
 146:src/syscall_c.cpp **** void putc(char c){
 609              		.loc 1 146 18 is_stmt 1
 610              		.cfi_startproc
 611              	.LVL36:
 612 022c 130101FF 		addi	sp,sp,-16
 613              		.cfi_def_cfa_offset 16
 614 0230 23348100 		sd	s0,8(sp)
 615              		.cfi_offset 8, -8
 616 0234 13040101 		addi	s0,sp,16
GAS LISTING /tmp/ccWUAG0P.s 			page 14


 617              		.cfi_def_cfa 8, 0
 147:src/syscall_c.cpp ****     //save
 148:src/syscall_c.cpp ****     __asm__ volatile("mv a1, %0" :: "r"((uint64)c));
 618              		.loc 1 148 5
 619              		.loc 1 148 52 is_stmt 0
 620              	#APP
 621              	# 148 "src/syscall_c.cpp" 1
 149              	    __asm__ volatile("li a0, 0x42");
 622              		mv a1, a0
 623              	# 0 "" 2
 624              		.loc 1 149 5 is_stmt 1
 625              		.loc 1 149 36 is_stmt 0
 626              	# 149 "src/syscall_c.cpp" 1
 150              	    //call
 151:src/syscall_c.cpp ****     __asm__ volatile("ecall");
 627              		li a0, 0x42
 628              	# 0 "" 2
 629              		.loc 1 151 5 is_stmt 1
 630              		.loc 1 151 30 is_stmt 0
 631              	# 151 "src/syscall_c.cpp" 1
 152              	}
 632              		ecall
 633              	# 0 "" 2
 634              		.loc 1 152 1
 635              	#NO_APP
 636 0244 03348100 		ld	s0,8(sp)
 637              		.cfi_restore 8
 638              		.cfi_def_cfa 2, 16
 639 0248 13010101 		addi	sp,sp,16
 640              		.cfi_def_cfa_offset 0
 641 024c 67800000 		jr	ra
 642              		.cfi_endproc
 643              	.LFE12:
 645              		.align	2
 646              		.globl	_Z4getcv
 648              	_Z4getcv:
 649              	.LFB11:
 135:src/syscall_c.cpp ****     __asm__ volatile("li a0, 0x41");
 650              		.loc 1 135 12 is_stmt 1
 651              		.cfi_startproc
 652 0250 130101FE 		addi	sp,sp,-32
 653              		.cfi_def_cfa_offset 32
 654 0254 233C1100 		sd	ra,24(sp)
 655 0258 23388100 		sd	s0,16(sp)
 656 025c 23349100 		sd	s1,8(sp)
 657              		.cfi_offset 1, -8
 658              		.cfi_offset 8, -16
 659              		.cfi_offset 9, -24
 660 0260 13040102 		addi	s0,sp,32
 661              		.cfi_def_cfa 8, 0
 136:src/syscall_c.cpp ****     //call
 662              		.loc 1 136 5
 136:src/syscall_c.cpp ****     //call
 663              		.loc 1 136 36 is_stmt 0
 664              	#APP
 665              	# 136 "src/syscall_c.cpp" 1
 138:src/syscall_c.cpp ****     //get result
GAS LISTING /tmp/ccWUAG0P.s 			page 15


 666              		li a0, 0x41
 667              	# 0 "" 2
 668              		.loc 1 138 5 is_stmt 1
 138:src/syscall_c.cpp ****     //get result
 669              		.loc 1 138 30 is_stmt 0
 670              	# 138 "src/syscall_c.cpp" 1
 140:src/syscall_c.cpp ****     __asm__ volatile("mv %0, a0" : "=r"(res));
 671              		ecall
 672              	# 0 "" 2
 673              		.loc 1 140 5 is_stmt 1
 141:src/syscall_c.cpp ****     putc(res);
 674              		.loc 1 141 5
 141:src/syscall_c.cpp ****     putc(res);
 675              		.loc 1 141 46 is_stmt 0
 676              	# 141 "src/syscall_c.cpp" 1
 677              		mv s1, a0
 678              	# 0 "" 2
 679              	.LVL37:
 142:src/syscall_c.cpp ****     return (char)res;
 680              		.loc 1 142 5 is_stmt 1
 142:src/syscall_c.cpp ****     return (char)res;
 681              		.loc 1 142 9 is_stmt 0
 682              	#NO_APP
 683 0270 93F4F40F 		andi	s1,s1,0xff
 684              	.LVL38:
 685 0274 13850400 		mv	a0,s1
 686 0278 97000000 		call	_Z4putcc
 686      E7800000 
 687              	.LVL39:
 143:src/syscall_c.cpp **** }
 688              		.loc 1 143 5 is_stmt 1
 144:src/syscall_c.cpp **** 
 689              		.loc 1 144 1 is_stmt 0
 690 0280 13850400 		mv	a0,s1
 691 0284 83308101 		ld	ra,24(sp)
 692              		.cfi_restore 1
 693 0288 03340101 		ld	s0,16(sp)
 694              		.cfi_restore 8
 695              		.cfi_def_cfa 2, 32
 696 028c 83348100 		ld	s1,8(sp)
 697              		.cfi_restore 9
 698 0290 13010102 		addi	sp,sp,32
 699              		.cfi_def_cfa_offset 0
 700 0294 67800000 		jr	ra
 701              		.cfi_endproc
 702              	.LFE11:
 704              	.Letext0:
 705              		.file 2 "src/../h/../lib/hw.h"
 706              		.file 3 "src/../h/syscall_c.hpp"
GAS LISTING /tmp/ccWUAG0P.s 			page 16


DEFINED SYMBOLS
                            *ABS*:0000000000000000 syscall_c.cpp
     /tmp/ccWUAG0P.s:9      .text:0000000000000000 _Z9mem_allocm
     /tmp/ccWUAG0P.s:13     .text:0000000000000000 .L0 
     /tmp/ccWUAG0P.s:15     .text:0000000000000000 .L0 
     /tmp/ccWUAG0P.s:16     .text:0000000000000004 .L0 
     /tmp/ccWUAG0P.s:18     .text:0000000000000008 .L0 
     /tmp/ccWUAG0P.s:20     .text:000000000000000c .L0 
     /tmp/ccWUAG0P.s:22     .text:000000000000000c .L0 
     /tmp/ccWUAG0P.s:23     .text:000000000000000c .L0 
     /tmp/ccWUAG0P.s:26     .text:0000000000000010 .L0 
   src/syscall_c.cpp:11     .text:0000000000000014 .L0 
     /tmp/ccWUAG0P.s:34     .text:0000000000000018 .L0 
   src/syscall_c.cpp:12     .text:0000000000000018 .L0 
     /tmp/ccWUAG0P.s:39     .text:000000000000001c .L0 
   src/syscall_c.cpp:14     .text:000000000000001c .L0 
     /tmp/ccWUAG0P.s:44     .text:0000000000000020 .L0 
     /tmp/ccWUAG0P.s:45     .text:0000000000000020 .L0 
   src/syscall_c.cpp:17     .text:0000000000000020 .L0 
     /tmp/ccWUAG0P.s:51     .text:0000000000000024 .L0 
     /tmp/ccWUAG0P.s:53     .text:0000000000000024 .L0 
     /tmp/ccWUAG0P.s:54     .text:0000000000000028 .L0 
     /tmp/ccWUAG0P.s:55     .text:0000000000000028 .L0 
     /tmp/ccWUAG0P.s:57     .text:000000000000002c .L0 
     /tmp/ccWUAG0P.s:59     .text:0000000000000030 .L0 
     /tmp/ccWUAG0P.s:65     .text:0000000000000030 _Z8mem_freePv
     /tmp/ccWUAG0P.s:68     .text:0000000000000030 .L0 
     /tmp/ccWUAG0P.s:70     .text:0000000000000030 .L0 
     /tmp/ccWUAG0P.s:71     .text:0000000000000034 .L0 
     /tmp/ccWUAG0P.s:73     .text:0000000000000038 .L0 
     /tmp/ccWUAG0P.s:75     .text:000000000000003c .L0 
     /tmp/ccWUAG0P.s:77     .text:000000000000003c .L0 
   src/syscall_c.cpp:23     .text:000000000000003c .L0 
     /tmp/ccWUAG0P.s:83     .text:0000000000000040 .L0 
   src/syscall_c.cpp:24     .text:0000000000000040 .L0 
     /tmp/ccWUAG0P.s:88     .text:0000000000000044 .L0 
   src/syscall_c.cpp:26     .text:0000000000000044 .L0 
     /tmp/ccWUAG0P.s:93     .text:0000000000000048 .L0 
     /tmp/ccWUAG0P.s:94     .text:0000000000000048 .L0 
   src/syscall_c.cpp:29     .text:0000000000000048 .L0 
     /tmp/ccWUAG0P.s:100    .text:000000000000004c .L0 
     /tmp/ccWUAG0P.s:102    .text:000000000000004c .L0 
     /tmp/ccWUAG0P.s:105    .text:0000000000000054 .L0 
     /tmp/ccWUAG0P.s:106    .text:0000000000000054 .L0 
     /tmp/ccWUAG0P.s:108    .text:0000000000000058 .L0 
     /tmp/ccWUAG0P.s:110    .text:000000000000005c .L0 
     /tmp/ccWUAG0P.s:116    .text:000000000000005c _Z13thread_createPP7_threadPFvPvES2_
     /tmp/ccWUAG0P.s:119    .text:000000000000005c .L0 
     /tmp/ccWUAG0P.s:121    .text:000000000000005c .L0 
     /tmp/ccWUAG0P.s:122    .text:0000000000000060 .L0 
     /tmp/ccWUAG0P.s:128    .text:0000000000000074 .L0 
     /tmp/ccWUAG0P.s:129    .text:0000000000000074 .L0 
     /tmp/ccWUAG0P.s:130    .text:0000000000000074 .L0 
     /tmp/ccWUAG0P.s:131    .text:0000000000000074 .L0 
     /tmp/ccWUAG0P.s:132    .text:0000000000000074 .L0 
     /tmp/ccWUAG0P.s:134    .text:0000000000000078 .L0 
     /tmp/ccWUAG0P.s:139    .text:0000000000000084 .L0 
GAS LISTING /tmp/ccWUAG0P.s 			page 17


     /tmp/ccWUAG0P.s:140    .text:0000000000000084 .L0 
     /tmp/ccWUAG0P.s:145    .text:0000000000000090 .L0 
     /tmp/ccWUAG0P.s:147    .text:0000000000000094 .L0 
   src/syscall_c.cpp:37     .text:0000000000000094 .L0 
     /tmp/ccWUAG0P.s:153    .text:0000000000000098 .L0 
   src/syscall_c.cpp:38     .text:0000000000000098 .L0 
     /tmp/ccWUAG0P.s:158    .text:000000000000009c .L0 
   src/syscall_c.cpp:39     .text:000000000000009c .L0 
     /tmp/ccWUAG0P.s:163    .text:00000000000000a0 .L0 
   src/syscall_c.cpp:40     .text:00000000000000a0 .L0 
     /tmp/ccWUAG0P.s:168    .text:00000000000000a4 .L0 
   src/syscall_c.cpp:41     .text:00000000000000a4 .L0 
     /tmp/ccWUAG0P.s:173    .text:00000000000000a8 .L0 
   src/syscall_c.cpp:43     .text:00000000000000a8 .L0 
     /tmp/ccWUAG0P.s:178    .text:00000000000000ac .L0 
     /tmp/ccWUAG0P.s:179    .text:00000000000000ac .L0 
   src/syscall_c.cpp:46     .text:00000000000000ac .L0 
     /tmp/ccWUAG0P.s:185    .text:00000000000000b0 .L0 
     /tmp/ccWUAG0P.s:187    .text:00000000000000b0 .L0 
     /tmp/ccWUAG0P.s:191    .text:00000000000000b4 .L0 
     /tmp/ccWUAG0P.s:192    .text:00000000000000b8 .L0 
     /tmp/ccWUAG0P.s:193    .text:00000000000000b8 .L0 
     /tmp/ccWUAG0P.s:195    .text:00000000000000bc .L0 
     /tmp/ccWUAG0P.s:196    .text:00000000000000bc .L0 
     /tmp/ccWUAG0P.s:198    .text:00000000000000c0 .L0 
     /tmp/ccWUAG0P.s:201    .text:00000000000000c4 .L0 
     /tmp/ccWUAG0P.s:204    .text:00000000000000c8 .L0 
     /tmp/ccWUAG0P.s:207    .text:00000000000000cc .L0 
     /tmp/ccWUAG0P.s:211    .text:00000000000000d0 .L0 
     /tmp/ccWUAG0P.s:213    .text:00000000000000d0 .L0 
     /tmp/ccWUAG0P.s:216    .text:00000000000000d8 .L0 
     /tmp/ccWUAG0P.s:222    .text:00000000000000d8 _Z11thread_exitv
     /tmp/ccWUAG0P.s:225    .text:00000000000000d8 .L0 
     /tmp/ccWUAG0P.s:226    .text:00000000000000d8 .L0 
     /tmp/ccWUAG0P.s:227    .text:00000000000000dc .L0 
     /tmp/ccWUAG0P.s:229    .text:00000000000000e0 .L0 
     /tmp/ccWUAG0P.s:231    .text:00000000000000e4 .L0 
     /tmp/ccWUAG0P.s:233    .text:00000000000000e4 .L0 
   src/syscall_c.cpp:52     .text:00000000000000e4 .L0 
     /tmp/ccWUAG0P.s:239    .text:00000000000000e8 .L0 
   src/syscall_c.cpp:54     .text:00000000000000e8 .L0 
     /tmp/ccWUAG0P.s:244    .text:00000000000000ec .L0 
     /tmp/ccWUAG0P.s:245    .text:00000000000000ec .L0 
   src/syscall_c.cpp:57     .text:00000000000000ec .L0 
     /tmp/ccWUAG0P.s:251    .text:00000000000000f0 .L0 
     /tmp/ccWUAG0P.s:253    .text:00000000000000f0 .L0 
     /tmp/ccWUAG0P.s:256    .text:00000000000000f8 .L0 
     /tmp/ccWUAG0P.s:257    .text:00000000000000f8 .L0 
     /tmp/ccWUAG0P.s:259    .text:00000000000000fc .L0 
     /tmp/ccWUAG0P.s:261    .text:0000000000000100 .L0 
     /tmp/ccWUAG0P.s:267    .text:0000000000000100 _Z15thread_dispatchv
     /tmp/ccWUAG0P.s:270    .text:0000000000000100 .L0 
     /tmp/ccWUAG0P.s:271    .text:0000000000000100 .L0 
     /tmp/ccWUAG0P.s:272    .text:0000000000000104 .L0 
     /tmp/ccWUAG0P.s:274    .text:0000000000000108 .L0 
     /tmp/ccWUAG0P.s:276    .text:000000000000010c .L0 
     /tmp/ccWUAG0P.s:278    .text:000000000000010c .L0 
GAS LISTING /tmp/ccWUAG0P.s 			page 18


   src/syscall_c.cpp:62     .text:000000000000010c .L0 
     /tmp/ccWUAG0P.s:284    .text:0000000000000110 .L0 
   src/syscall_c.cpp:63     .text:0000000000000110 .L0 
     /tmp/ccWUAG0P.s:290    .text:0000000000000114 .L0 
     /tmp/ccWUAG0P.s:291    .text:0000000000000118 .L0 
     /tmp/ccWUAG0P.s:292    .text:0000000000000118 .L0 
     /tmp/ccWUAG0P.s:294    .text:000000000000011c .L0 
     /tmp/ccWUAG0P.s:296    .text:0000000000000120 .L0 
     /tmp/ccWUAG0P.s:302    .text:0000000000000120 _Z11thread_joinP7_thread
     /tmp/ccWUAG0P.s:305    .text:0000000000000120 .L0 
     /tmp/ccWUAG0P.s:307    .text:0000000000000120 .L0 
     /tmp/ccWUAG0P.s:308    .text:0000000000000124 .L0 
     /tmp/ccWUAG0P.s:310    .text:0000000000000128 .L0 
     /tmp/ccWUAG0P.s:312    .text:000000000000012c .L0 
     /tmp/ccWUAG0P.s:314    .text:000000000000012c .L0 
   src/syscall_c.cpp:68     .text:000000000000012c .L0 
     /tmp/ccWUAG0P.s:320    .text:0000000000000130 .L0 
   src/syscall_c.cpp:69     .text:0000000000000130 .L0 
     /tmp/ccWUAG0P.s:325    .text:0000000000000134 .L0 
   src/syscall_c.cpp:71     .text:0000000000000134 .L0 
     /tmp/ccWUAG0P.s:331    .text:0000000000000138 .L0 
     /tmp/ccWUAG0P.s:332    .text:000000000000013c .L0 
     /tmp/ccWUAG0P.s:333    .text:000000000000013c .L0 
     /tmp/ccWUAG0P.s:335    .text:0000000000000140 .L0 
     /tmp/ccWUAG0P.s:337    .text:0000000000000144 .L0 
     /tmp/ccWUAG0P.s:343    .text:0000000000000144 _Z8sem_openPP4_semj
     /tmp/ccWUAG0P.s:346    .text:0000000000000144 .L0 
     /tmp/ccWUAG0P.s:348    .text:0000000000000144 .L0 
     /tmp/ccWUAG0P.s:349    .text:0000000000000148 .L0 
     /tmp/ccWUAG0P.s:351    .text:000000000000014c .L0 
     /tmp/ccWUAG0P.s:353    .text:0000000000000150 .L0 
     /tmp/ccWUAG0P.s:355    .text:0000000000000150 .L0 
     /tmp/ccWUAG0P.s:356    .text:0000000000000150 .L0 
   src/syscall_c.cpp:76     .text:0000000000000158 .L0 
     /tmp/ccWUAG0P.s:365    .text:000000000000015c .L0 
   src/syscall_c.cpp:77     .text:000000000000015c .L0 
     /tmp/ccWUAG0P.s:370    .text:0000000000000160 .L0 
   src/syscall_c.cpp:78     .text:0000000000000160 .L0 
     /tmp/ccWUAG0P.s:375    .text:0000000000000164 .L0 
   src/syscall_c.cpp:80     .text:0000000000000164 .L0 
     /tmp/ccWUAG0P.s:380    .text:0000000000000168 .L0 
     /tmp/ccWUAG0P.s:381    .text:0000000000000168 .L0 
   src/syscall_c.cpp:83     .text:0000000000000168 .L0 
     /tmp/ccWUAG0P.s:387    .text:000000000000016c .L0 
     /tmp/ccWUAG0P.s:389    .text:000000000000016c .L0 
     /tmp/ccWUAG0P.s:392    .text:0000000000000174 .L0 
     /tmp/ccWUAG0P.s:393    .text:0000000000000174 .L0 
     /tmp/ccWUAG0P.s:395    .text:0000000000000178 .L0 
     /tmp/ccWUAG0P.s:397    .text:000000000000017c .L0 
     /tmp/ccWUAG0P.s:403    .text:000000000000017c _Z9sem_closeP4_sem
     /tmp/ccWUAG0P.s:406    .text:000000000000017c .L0 
     /tmp/ccWUAG0P.s:408    .text:000000000000017c .L0 
     /tmp/ccWUAG0P.s:409    .text:0000000000000180 .L0 
     /tmp/ccWUAG0P.s:411    .text:0000000000000184 .L0 
     /tmp/ccWUAG0P.s:413    .text:0000000000000188 .L0 
     /tmp/ccWUAG0P.s:415    .text:0000000000000188 .L0 
   src/syscall_c.cpp:89     .text:0000000000000188 .L0 
GAS LISTING /tmp/ccWUAG0P.s 			page 19


     /tmp/ccWUAG0P.s:421    .text:000000000000018c .L0 
   src/syscall_c.cpp:90     .text:000000000000018c .L0 
     /tmp/ccWUAG0P.s:426    .text:0000000000000190 .L0 
   src/syscall_c.cpp:92     .text:0000000000000190 .L0 
     /tmp/ccWUAG0P.s:431    .text:0000000000000194 .L0 
     /tmp/ccWUAG0P.s:432    .text:0000000000000194 .L0 
   src/syscall_c.cpp:95     .text:0000000000000194 .L0 
     /tmp/ccWUAG0P.s:438    .text:0000000000000198 .L0 
     /tmp/ccWUAG0P.s:440    .text:0000000000000198 .L0 
     /tmp/ccWUAG0P.s:443    .text:00000000000001a0 .L0 
     /tmp/ccWUAG0P.s:444    .text:00000000000001a0 .L0 
     /tmp/ccWUAG0P.s:446    .text:00000000000001a4 .L0 
     /tmp/ccWUAG0P.s:448    .text:00000000000001a8 .L0 
     /tmp/ccWUAG0P.s:454    .text:00000000000001a8 _Z8sem_waitP4_sem
     /tmp/ccWUAG0P.s:457    .text:00000000000001a8 .L0 
     /tmp/ccWUAG0P.s:459    .text:00000000000001a8 .L0 
     /tmp/ccWUAG0P.s:460    .text:00000000000001ac .L0 
     /tmp/ccWUAG0P.s:462    .text:00000000000001b0 .L0 
     /tmp/ccWUAG0P.s:464    .text:00000000000001b4 .L0 
     /tmp/ccWUAG0P.s:466    .text:00000000000001b4 .L0 
   src/syscall_c.cpp:101    .text:00000000000001b4 .L0 
     /tmp/ccWUAG0P.s:472    .text:00000000000001b8 .L0 
   src/syscall_c.cpp:102    .text:00000000000001b8 .L0 
     /tmp/ccWUAG0P.s:477    .text:00000000000001bc .L0 
   src/syscall_c.cpp:104    .text:00000000000001bc .L0 
     /tmp/ccWUAG0P.s:482    .text:00000000000001c0 .L0 
     /tmp/ccWUAG0P.s:483    .text:00000000000001c0 .L0 
   src/syscall_c.cpp:107    .text:00000000000001c0 .L0 
     /tmp/ccWUAG0P.s:489    .text:00000000000001c4 .L0 
     /tmp/ccWUAG0P.s:491    .text:00000000000001c4 .L0 
     /tmp/ccWUAG0P.s:494    .text:00000000000001cc .L0 
     /tmp/ccWUAG0P.s:495    .text:00000000000001cc .L0 
     /tmp/ccWUAG0P.s:497    .text:00000000000001d0 .L0 
     /tmp/ccWUAG0P.s:499    .text:00000000000001d4 .L0 
     /tmp/ccWUAG0P.s:505    .text:00000000000001d4 _Z10sem_signalP4_sem
     /tmp/ccWUAG0P.s:508    .text:00000000000001d4 .L0 
     /tmp/ccWUAG0P.s:510    .text:00000000000001d4 .L0 
     /tmp/ccWUAG0P.s:511    .text:00000000000001d8 .L0 
     /tmp/ccWUAG0P.s:513    .text:00000000000001dc .L0 
     /tmp/ccWUAG0P.s:515    .text:00000000000001e0 .L0 
     /tmp/ccWUAG0P.s:517    .text:00000000000001e0 .L0 
   src/syscall_c.cpp:113    .text:00000000000001e0 .L0 
     /tmp/ccWUAG0P.s:523    .text:00000000000001e4 .L0 
   src/syscall_c.cpp:114    .text:00000000000001e4 .L0 
     /tmp/ccWUAG0P.s:528    .text:00000000000001e8 .L0 
   src/syscall_c.cpp:116    .text:00000000000001e8 .L0 
     /tmp/ccWUAG0P.s:533    .text:00000000000001ec .L0 
     /tmp/ccWUAG0P.s:534    .text:00000000000001ec .L0 
   src/syscall_c.cpp:119    .text:00000000000001ec .L0 
     /tmp/ccWUAG0P.s:540    .text:00000000000001f0 .L0 
     /tmp/ccWUAG0P.s:542    .text:00000000000001f0 .L0 
     /tmp/ccWUAG0P.s:545    .text:00000000000001f8 .L0 
     /tmp/ccWUAG0P.s:546    .text:00000000000001f8 .L0 
     /tmp/ccWUAG0P.s:548    .text:00000000000001fc .L0 
     /tmp/ccWUAG0P.s:550    .text:0000000000000200 .L0 
     /tmp/ccWUAG0P.s:556    .text:0000000000000200 _Z10time_sleepm
     /tmp/ccWUAG0P.s:559    .text:0000000000000200 .L0 
GAS LISTING /tmp/ccWUAG0P.s 			page 20


     /tmp/ccWUAG0P.s:561    .text:0000000000000200 .L0 
     /tmp/ccWUAG0P.s:562    .text:0000000000000204 .L0 
     /tmp/ccWUAG0P.s:564    .text:0000000000000208 .L0 
     /tmp/ccWUAG0P.s:566    .text:000000000000020c .L0 
     /tmp/ccWUAG0P.s:568    .text:000000000000020c .L0 
   src/syscall_c.cpp:125    .text:000000000000020c .L0 
     /tmp/ccWUAG0P.s:574    .text:0000000000000210 .L0 
   src/syscall_c.cpp:126    .text:0000000000000210 .L0 
     /tmp/ccWUAG0P.s:579    .text:0000000000000214 .L0 
   src/syscall_c.cpp:128    .text:0000000000000214 .L0 
     /tmp/ccWUAG0P.s:584    .text:0000000000000218 .L0 
     /tmp/ccWUAG0P.s:585    .text:0000000000000218 .L0 
   src/syscall_c.cpp:131    .text:0000000000000218 .L0 
     /tmp/ccWUAG0P.s:591    .text:000000000000021c .L0 
     /tmp/ccWUAG0P.s:593    .text:000000000000021c .L0 
     /tmp/ccWUAG0P.s:596    .text:0000000000000224 .L0 
     /tmp/ccWUAG0P.s:597    .text:0000000000000224 .L0 
     /tmp/ccWUAG0P.s:599    .text:0000000000000228 .L0 
     /tmp/ccWUAG0P.s:601    .text:000000000000022c .L0 
     /tmp/ccWUAG0P.s:607    .text:000000000000022c _Z4putcc
     /tmp/ccWUAG0P.s:610    .text:000000000000022c .L0 
     /tmp/ccWUAG0P.s:612    .text:000000000000022c .L0 
     /tmp/ccWUAG0P.s:613    .text:0000000000000230 .L0 
     /tmp/ccWUAG0P.s:615    .text:0000000000000234 .L0 
     /tmp/ccWUAG0P.s:617    .text:0000000000000238 .L0 
     /tmp/ccWUAG0P.s:619    .text:0000000000000238 .L0 
   src/syscall_c.cpp:148    .text:0000000000000238 .L0 
     /tmp/ccWUAG0P.s:625    .text:000000000000023c .L0 
   src/syscall_c.cpp:149    .text:000000000000023c .L0 
     /tmp/ccWUAG0P.s:630    .text:0000000000000240 .L0 
   src/syscall_c.cpp:151    .text:0000000000000240 .L0 
     /tmp/ccWUAG0P.s:636    .text:0000000000000244 .L0 
     /tmp/ccWUAG0P.s:637    .text:0000000000000248 .L0 
     /tmp/ccWUAG0P.s:638    .text:0000000000000248 .L0 
     /tmp/ccWUAG0P.s:640    .text:000000000000024c .L0 
     /tmp/ccWUAG0P.s:642    .text:0000000000000250 .L0 
     /tmp/ccWUAG0P.s:648    .text:0000000000000250 _Z4getcv
     /tmp/ccWUAG0P.s:651    .text:0000000000000250 .L0 
     /tmp/ccWUAG0P.s:652    .text:0000000000000250 .L0 
     /tmp/ccWUAG0P.s:653    .text:0000000000000254 .L0 
     /tmp/ccWUAG0P.s:657    .text:0000000000000260 .L0 
     /tmp/ccWUAG0P.s:658    .text:0000000000000260 .L0 
     /tmp/ccWUAG0P.s:659    .text:0000000000000260 .L0 
     /tmp/ccWUAG0P.s:661    .text:0000000000000264 .L0 
     /tmp/ccWUAG0P.s:663    .text:0000000000000264 .L0 
   src/syscall_c.cpp:136    .text:0000000000000264 .L0 
     /tmp/ccWUAG0P.s:669    .text:0000000000000268 .L0 
   src/syscall_c.cpp:138    .text:0000000000000268 .L0 
     /tmp/ccWUAG0P.s:674    .text:000000000000026c .L0 
     /tmp/ccWUAG0P.s:675    .text:000000000000026c .L0 
   src/syscall_c.cpp:141    .text:000000000000026c .L0 
     /tmp/ccWUAG0P.s:681    .text:0000000000000270 .L0 
     /tmp/ccWUAG0P.s:683    .text:0000000000000270 .L0 
     /tmp/ccWUAG0P.s:689    .text:0000000000000280 .L0 
     /tmp/ccWUAG0P.s:690    .text:0000000000000280 .L0 
     /tmp/ccWUAG0P.s:692    .text:0000000000000288 .L0 
     /tmp/ccWUAG0P.s:694    .text:000000000000028c .L0 
GAS LISTING /tmp/ccWUAG0P.s 			page 21


     /tmp/ccWUAG0P.s:695    .text:000000000000028c .L0 
     /tmp/ccWUAG0P.s:697    .text:0000000000000290 .L0 
     /tmp/ccWUAG0P.s:699    .text:0000000000000294 .L0 
     /tmp/ccWUAG0P.s:701    .text:0000000000000298 .L0 
     /tmp/ccWUAG0P.s:707    .text:0000000000000298 .L0 
     /tmp/ccWUAG0P.s:210    .text:00000000000000d0 .L7
     /tmp/ccWUAG0P.s:189    .text:00000000000000b4 .L6
     /tmp/ccWUAG0P.s:1250   .debug_abbrev:0000000000000000 .Ldebug_abbrev0
     /tmp/ccWUAG0P.s:2003   .debug_str:0000000000000178 .LASF54
     /tmp/ccWUAG0P.s:2063   .debug_str:00000000000003ab .LASF55
     /tmp/ccWUAG0P.s:2033   .debug_str:00000000000002de .LASF56
     /tmp/ccWUAG0P.s:5      .text:0000000000000000 .Ltext0
     /tmp/ccWUAG0P.s:704    .text:0000000000000298 .Letext0
     /tmp/ccWUAG0P.s:1947   .debug_line:0000000000000000 .Ldebug_line0
     /tmp/ccWUAG0P.s:2011   .debug_str:0000000000000258 .LASF0
     /tmp/ccWUAG0P.s:1989   .debug_str:000000000000010b .LASF1
     /tmp/ccWUAG0P.s:1979   .debug_str:00000000000000d3 .LASF2
     /tmp/ccWUAG0P.s:1961   .debug_str:000000000000004e .LASF4
     /tmp/ccWUAG0P.s:1987   .debug_str:00000000000000f9 .LASF3
     /tmp/ccWUAG0P.s:1953   .debug_str:0000000000000021 .LASF5
     /tmp/ccWUAG0P.s:2019   .debug_str:000000000000028a .LASF6
     /tmp/ccWUAG0P.s:1951   .debug_str:000000000000000e .LASF7
     /tmp/ccWUAG0P.s:1973   .debug_str:000000000000009d .LASF8
     /tmp/ccWUAG0P.s:2021   .debug_str:0000000000000291 .LASF9
     /tmp/ccWUAG0P.s:1959   .debug_str:0000000000000040 .LASF10
     /tmp/ccWUAG0P.s:2065   .debug_str:00000000000003bd .LASF11
     /tmp/ccWUAG0P.s:1975   .debug_str:00000000000000b0 .LASF12
     /tmp/ccWUAG0P.s:2051   .debug_str:000000000000035e .LASF13
     /tmp/ccWUAG0P.s:2029   .debug_str:00000000000002c5 .LASF14
     /tmp/ccWUAG0P.s:1993   .debug_str:0000000000000127 .LASF15
     /tmp/ccWUAG0P.s:1969   .debug_str:0000000000000072 .LASF16
     /tmp/ccWUAG0P.s:2025   .debug_str:00000000000002a6 .LASF17
     /tmp/ccWUAG0P.s:2027   .debug_str:00000000000002bc .LASF18
     /tmp/ccWUAG0P.s:2041   .debug_str:0000000000000322 .LASF20
     /tmp/ccWUAG0P.s:1957   .debug_str:000000000000003a .LASF19
     /tmp/ccWUAG0P.s:2005   .debug_str:000000000000023c .LASF21
     /tmp/ccWUAG0P.s:1963   .debug_str:0000000000000055 .LASF22
     /tmp/ccWUAG0P.s:2039   .debug_str:000000000000031d .LASF39
     /tmp/ccWUAG0P.s:1991   .debug_str:000000000000011e .LASF41
     /tmp/ccWUAG0P.s:608    .text:000000000000022c .LFB12
     /tmp/ccWUAG0P.s:643    .text:0000000000000250 .LFE12
     /tmp/ccWUAG0P.s:2015   .debug_str:0000000000000270 .LASF23
     /tmp/ccWUAG0P.s:1981   .debug_str:00000000000000e1 .LASF24
     /tmp/ccWUAG0P.s:2057   .debug_str:0000000000000384 .LASF26
     /tmp/ccWUAG0P.s:649    .text:0000000000000250 .LFB11
     /tmp/ccWUAG0P.s:702    .text:0000000000000298 .LFE11
     /tmp/ccWUAG0P.s:1676   .debug_loc:0000000000000000 .LLST20
     /tmp/ccWUAG0P.s:687    .text:0000000000000280 .LVL39
     /tmp/ccWUAG0P.s:2013   .debug_str:0000000000000265 .LASF25
     /tmp/ccWUAG0P.s:2045   .debug_str:000000000000032f .LASF27
     /tmp/ccWUAG0P.s:557    .text:0000000000000200 .LFB10
     /tmp/ccWUAG0P.s:602    .text:000000000000022c .LFE10
     /tmp/ccWUAG0P.s:2023   .debug_str:00000000000002a1 .LASF28
     /tmp/ccWUAG0P.s:1683   .debug_loc:0000000000000023 .LLST18
     /tmp/ccWUAG0P.s:1697   .debug_loc:000000000000005c .LLST19
     /tmp/ccWUAG0P.s:1997   .debug_str:000000000000013a .LASF29
     /tmp/ccWUAG0P.s:2017   .debug_str:0000000000000275 .LASF30
GAS LISTING /tmp/ccWUAG0P.s 			page 22


     /tmp/ccWUAG0P.s:506    .text:00000000000001d4 .LFB9
     /tmp/ccWUAG0P.s:551    .text:0000000000000200 .LFE9
     /tmp/ccWUAG0P.s:1704   .debug_loc:000000000000007f .LLST16
     /tmp/ccWUAG0P.s:1718   .debug_loc:00000000000000b8 .LLST17
     /tmp/ccWUAG0P.s:2007   .debug_str:0000000000000241 .LASF31
     /tmp/ccWUAG0P.s:1955   .debug_str:0000000000000028 .LASF32
     /tmp/ccWUAG0P.s:455    .text:00000000000001a8 .LFB8
     /tmp/ccWUAG0P.s:500    .text:00000000000001d4 .LFE8
     /tmp/ccWUAG0P.s:1725   .debug_loc:00000000000000db .LLST14
     /tmp/ccWUAG0P.s:1739   .debug_loc:0000000000000114 .LLST15
     /tmp/ccWUAG0P.s:1985   .debug_str:00000000000000ef .LASF33
     /tmp/ccWUAG0P.s:1965   .debug_str:000000000000005a .LASF34
     /tmp/ccWUAG0P.s:404    .text:000000000000017c .LFB7
     /tmp/ccWUAG0P.s:449    .text:00000000000001a8 .LFE7
     /tmp/ccWUAG0P.s:1995   .debug_str:0000000000000133 .LASF35
     /tmp/ccWUAG0P.s:1746   .debug_loc:0000000000000137 .LLST12
     /tmp/ccWUAG0P.s:1760   .debug_loc:0000000000000170 .LLST13
     /tmp/ccWUAG0P.s:1983   .debug_str:00000000000000e6 .LASF36
     /tmp/ccWUAG0P.s:1977   .debug_str:00000000000000bf .LASF37
     /tmp/ccWUAG0P.s:344    .text:0000000000000144 .LFB6
     /tmp/ccWUAG0P.s:398    .text:000000000000017c .LFE6
     /tmp/ccWUAG0P.s:1767   .debug_loc:0000000000000193 .LLST9
     /tmp/ccWUAG0P.s:1967   .debug_str:000000000000006d .LASF38
     /tmp/ccWUAG0P.s:1781   .debug_loc:00000000000001cc .LLST10
     /tmp/ccWUAG0P.s:1795   .debug_loc:0000000000000205 .LLST11
     /tmp/ccWUAG0P.s:2037   .debug_str:0000000000000311 .LASF40
     /tmp/ccWUAG0P.s:2061   .debug_str:0000000000000392 .LASF42
     /tmp/ccWUAG0P.s:303    .text:0000000000000120 .LFB5
     /tmp/ccWUAG0P.s:338    .text:0000000000000144 .LFE5
     /tmp/ccWUAG0P.s:2035   .debug_str:0000000000000301 .LASF57
     /tmp/ccWUAG0P.s:1971   .debug_str:0000000000000088 .LASF58
     /tmp/ccWUAG0P.s:268    .text:0000000000000100 .LFB4
     /tmp/ccWUAG0P.s:297    .text:0000000000000120 .LFE4
     /tmp/ccWUAG0P.s:2053   .debug_str:000000000000036e .LASF43
     /tmp/ccWUAG0P.s:2049   .debug_str:000000000000034d .LASF44
     /tmp/ccWUAG0P.s:223    .text:00000000000000d8 .LFB3
     /tmp/ccWUAG0P.s:262    .text:0000000000000100 .LFE3
     /tmp/ccWUAG0P.s:1802   .debug_loc:0000000000000228 .LLST8
     /tmp/ccWUAG0P.s:2047   .debug_str:000000000000033f .LASF45
     /tmp/ccWUAG0P.s:1999   .debug_str:0000000000000145 .LASF46
     /tmp/ccWUAG0P.s:117    .text:000000000000005c .LFB2
     /tmp/ccWUAG0P.s:217    .text:00000000000000d8 .LFE2
     /tmp/ccWUAG0P.s:1809   .debug_loc:000000000000024b .LLST3
     /tmp/ccWUAG0P.s:2001   .debug_str:000000000000016a .LASF47
     /tmp/ccWUAG0P.s:1831   .debug_loc:00000000000002aa .LLST4
     /tmp/ccWUAG0P.s:1853   .debug_loc:0000000000000309 .LLST5
     /tmp/ccWUAG0P.s:2043   .debug_str:000000000000032a .LASF48
     /tmp/ccWUAG0P.s:1875   .debug_loc:0000000000000368 .LLST6
     /tmp/ccWUAG0P.s:1886   .debug_loc:000000000000039e .LLST7
     /tmp/ccWUAG0P.s:143    .text:0000000000000090 .LVL9
     /tmp/ccWUAG0P.s:2031   .debug_str:00000000000002d5 .LASF49
     /tmp/ccWUAG0P.s:1949   .debug_str:0000000000000000 .LASF50
     /tmp/ccWUAG0P.s:66     .text:0000000000000030 .LFB1
     /tmp/ccWUAG0P.s:111    .text:000000000000005c .LFE1
     /tmp/ccWUAG0P.s:1893   .debug_loc:00000000000003c1 .LLST1
     /tmp/ccWUAG0P.s:1907   .debug_loc:00000000000003fa .LLST2
     /tmp/ccWUAG0P.s:2055   .debug_str:000000000000037a .LASF51
GAS LISTING /tmp/ccWUAG0P.s 			page 23


     /tmp/ccWUAG0P.s:2009   .debug_str:000000000000024a .LASF52
     /tmp/ccWUAG0P.s:10     .text:0000000000000000 .LFB0
     /tmp/ccWUAG0P.s:60     .text:0000000000000030 .LFE0
     /tmp/ccWUAG0P.s:2059   .debug_str:000000000000038d .LASF53
     /tmp/ccWUAG0P.s:1914   .debug_loc:000000000000041d .LLST0
     /tmp/ccWUAG0P.s:679    .text:0000000000000270 .LVL37
     /tmp/ccWUAG0P.s:684    .text:0000000000000274 .LVL38
     /tmp/ccWUAG0P.s:560    .text:0000000000000200 .LVL33
     /tmp/ccWUAG0P.s:589    .text:000000000000021c .LVL34
     /tmp/ccWUAG0P.s:594    .text:0000000000000220 .LVL35
     /tmp/ccWUAG0P.s:509    .text:00000000000001d4 .LVL30
     /tmp/ccWUAG0P.s:538    .text:00000000000001f0 .LVL31
     /tmp/ccWUAG0P.s:543    .text:00000000000001f4 .LVL32
     /tmp/ccWUAG0P.s:458    .text:00000000000001a8 .LVL27
     /tmp/ccWUAG0P.s:487    .text:00000000000001c4 .LVL28
     /tmp/ccWUAG0P.s:492    .text:00000000000001c8 .LVL29
     /tmp/ccWUAG0P.s:407    .text:000000000000017c .LVL24
     /tmp/ccWUAG0P.s:436    .text:0000000000000198 .LVL25
     /tmp/ccWUAG0P.s:441    .text:000000000000019c .LVL26
     /tmp/ccWUAG0P.s:347    .text:0000000000000144 .LVL20
     /tmp/ccWUAG0P.s:385    .text:000000000000016c .LVL22
     /tmp/ccWUAG0P.s:357    .text:0000000000000154 .LVL21
     /tmp/ccWUAG0P.s:390    .text:0000000000000170 .LVL23
     /tmp/ccWUAG0P.s:249    .text:00000000000000f0 .LVL17
     /tmp/ccWUAG0P.s:254    .text:00000000000000f4 .LVL18
     /tmp/ccWUAG0P.s:120    .text:000000000000005c .LVL7
     /tmp/ccWUAG0P.s:141    .text:0000000000000088 .LVL8
     /tmp/ccWUAG0P.s:199    .text:00000000000000c0 .LVL12
     /tmp/ccWUAG0P.s:209    .text:00000000000000d0 .LVL15
     /tmp/ccWUAG0P.s:202    .text:00000000000000c4 .LVL13
     /tmp/ccWUAG0P.s:205    .text:00000000000000c8 .LVL14
     /tmp/ccWUAG0P.s:183    .text:00000000000000b0 .LVL10
     /tmp/ccWUAG0P.s:214    .text:00000000000000d4 .LVL16
     /tmp/ccWUAG0P.s:188    .text:00000000000000b4 .LVL11
     /tmp/ccWUAG0P.s:69     .text:0000000000000030 .LVL4
     /tmp/ccWUAG0P.s:98     .text:000000000000004c .LVL5
     /tmp/ccWUAG0P.s:103    .text:0000000000000050 .LVL6
     /tmp/ccWUAG0P.s:14     .text:0000000000000000 .LVL0
     /tmp/ccWUAG0P.s:24     .text:0000000000000010 .LVL1
     /tmp/ccWUAG0P.s:27     .text:0000000000000014 .LVL2
     /tmp/ccWUAG0P.s:708    .debug_info:0000000000000000 .Ldebug_info0

NO UNDEFINED SYMBOLS
